bomb:     file format elf64-x86-64


Disassembly of section .init:

0000000000400cb0 <_init>:
  400cb0:	48 83 ec 08          	sub    $0x8,%rsp
  400cb4:	48 8b 05 3d 33 20 00 	mov    0x20333d(%rip),%rax        # 603ff8 <__gmon_start__>
  400cbb:	48 85 c0             	test   %rax,%rax
  400cbe:	74 05                	je     400cc5 <_init+0x15>
  400cc0:	e8 5b 00 00 00       	callq  400d20 <__gmon_start__@plt>
  400cc5:	48 83 c4 08          	add    $0x8,%rsp
  400cc9:	c3                   	retq

Disassembly of section .plt:

0000000000400cd0 <.plt>:
  400cd0:	ff 35 32 33 20 00    	pushq  0x203332(%rip)        # 604008 <_GLOBAL_OFFSET_TABLE_+0x8>
  400cd6:	ff 25 34 33 20 00    	jmpq   *0x203334(%rip)        # 604010 <_GLOBAL_OFFSET_TABLE_+0x10>
  400cdc:	0f 1f 40 00          	nopl   0x0(%rax)

0000000000400ce0 <printf@plt>:
  400ce0:	ff 25 32 33 20 00    	jmpq   *0x203332(%rip)        # 604018 <printf@GLIBC_2.2.5>
  400ce6:	68 00 00 00 00       	pushq  $0x0
  400ceb:	e9 e0 ff ff ff       	jmpq   400cd0 <.plt>

0000000000400cf0 <snprintf@plt>:
  400cf0:	ff 25 2a 33 20 00    	jmpq   *0x20332a(%rip)        # 604020 <snprintf@GLIBC_2.2.5>
  400cf6:	68 01 00 00 00       	pushq  $0x1
  400cfb:	e9 d0 ff ff ff       	jmpq   400cd0 <.plt>

0000000000400d00 <close@plt>:
  400d00:	ff 25 22 33 20 00    	jmpq   *0x203322(%rip)        # 604028 <close@GLIBC_2.2.5>
  400d06:	68 02 00 00 00       	pushq  $0x2
  400d0b:	e9 c0 ff ff ff       	jmpq   400cd0 <.plt>

0000000000400d10 <gethostbyname@plt>:
  400d10:	ff 25 1a 33 20 00    	jmpq   *0x20331a(%rip)        # 604030 <gethostbyname@GLIBC_2.2.5>
  400d16:	68 03 00 00 00       	pushq  $0x3
  400d1b:	e9 b0 ff ff ff       	jmpq   400cd0 <.plt>

0000000000400d20 <__gmon_start__@plt>:
  400d20:	ff 25 12 33 20 00    	jmpq   *0x203312(%rip)        # 604038 <__gmon_start__>
  400d26:	68 04 00 00 00       	pushq  $0x4
  400d2b:	e9 a0 ff ff ff       	jmpq   400cd0 <.plt>

0000000000400d30 <puts@plt>:
  400d30:	ff 25 0a 33 20 00    	jmpq   *0x20330a(%rip)        # 604040 <puts@GLIBC_2.2.5>
  400d36:	68 05 00 00 00       	pushq  $0x5
  400d3b:	e9 90 ff ff ff       	jmpq   400cd0 <.plt>

0000000000400d40 <__isoc99_sscanf@plt>:
  400d40:	ff 25 02 33 20 00    	jmpq   *0x203302(%rip)        # 604048 <__isoc99_sscanf@GLIBC_2.7>
  400d46:	68 06 00 00 00       	pushq  $0x6
  400d4b:	e9 80 ff ff ff       	jmpq   400cd0 <.plt>

0000000000400d50 <exit@plt>:
  400d50:	ff 25 fa 32 20 00    	jmpq   *0x2032fa(%rip)        # 604050 <exit@GLIBC_2.2.5>
  400d56:	68 07 00 00 00       	pushq  $0x7
  400d5b:	e9 70 ff ff ff       	jmpq   400cd0 <.plt>

0000000000400d60 <strcasecmp@plt>:
  400d60:	ff 25 f2 32 20 00    	jmpq   *0x2032f2(%rip)        # 604058 <strcasecmp@GLIBC_2.2.5>
  400d66:	68 08 00 00 00       	pushq  $0x8
  400d6b:	e9 60 ff ff ff       	jmpq   400cd0 <.plt>

0000000000400d70 <read@plt>:
  400d70:	ff 25 ea 32 20 00    	jmpq   *0x2032ea(%rip)        # 604060 <read@GLIBC_2.2.5>
  400d76:	68 09 00 00 00       	pushq  $0x9
  400d7b:	e9 50 ff ff ff       	jmpq   400cd0 <.plt>

0000000000400d80 <fopen@plt>:
  400d80:	ff 25 e2 32 20 00    	jmpq   *0x2032e2(%rip)        # 604068 <fopen@GLIBC_2.2.5>
  400d86:	68 0a 00 00 00       	pushq  $0xa
  400d8b:	e9 40 ff ff ff       	jmpq   400cd0 <.plt>

0000000000400d90 <__libc_start_main@plt>:
  400d90:	ff 25 da 32 20 00    	jmpq   *0x2032da(%rip)        # 604070 <__libc_start_main@GLIBC_2.2.5>
  400d96:	68 0b 00 00 00       	pushq  $0xb
  400d9b:	e9 30 ff ff ff       	jmpq   400cd0 <.plt>

0000000000400da0 <fgets@plt>:
  400da0:	ff 25 d2 32 20 00    	jmpq   *0x2032d2(%rip)        # 604078 <fgets@GLIBC_2.2.5>
  400da6:	68 0c 00 00 00       	pushq  $0xc
  400dab:	e9 20 ff ff ff       	jmpq   400cd0 <.plt>

0000000000400db0 <creat@plt>:
  400db0:	ff 25 ca 32 20 00    	jmpq   *0x2032ca(%rip)        # 604080 <creat@GLIBC_2.2.5>
  400db6:	68 0d 00 00 00       	pushq  $0xd
  400dbb:	e9 10 ff ff ff       	jmpq   400cd0 <.plt>

0000000000400dc0 <bcopy@plt>:
  400dc0:	ff 25 c2 32 20 00    	jmpq   *0x2032c2(%rip)        # 604088 <bcopy@GLIBC_2.2.5>
  400dc6:	68 0e 00 00 00       	pushq  $0xe
  400dcb:	e9 00 ff ff ff       	jmpq   400cd0 <.plt>

0000000000400dd0 <__xstat@plt>:
  400dd0:	ff 25 ba 32 20 00    	jmpq   *0x2032ba(%rip)        # 604090 <__xstat@GLIBC_2.2.5>
  400dd6:	68 0f 00 00 00       	pushq  $0xf
  400ddb:	e9 f0 fe ff ff       	jmpq   400cd0 <.plt>

0000000000400de0 <__ctype_b_loc@plt>:
  400de0:	ff 25 b2 32 20 00    	jmpq   *0x2032b2(%rip)        # 604098 <__ctype_b_loc@GLIBC_2.3>
  400de6:	68 10 00 00 00       	pushq  $0x10
  400deb:	e9 e0 fe ff ff       	jmpq   400cd0 <.plt>

0000000000400df0 <sprintf@plt>:
  400df0:	ff 25 aa 32 20 00    	jmpq   *0x2032aa(%rip)        # 6040a0 <sprintf@GLIBC_2.2.5>
  400df6:	68 11 00 00 00       	pushq  $0x11
  400dfb:	e9 d0 fe ff ff       	jmpq   400cd0 <.plt>

0000000000400e00 <sleep@plt>:
  400e00:	ff 25 a2 32 20 00    	jmpq   *0x2032a2(%rip)        # 6040a8 <sleep@GLIBC_2.2.5>
  400e06:	68 12 00 00 00       	pushq  $0x12
  400e0b:	e9 c0 fe ff ff       	jmpq   400cd0 <.plt>

0000000000400e10 <connect@plt>:
  400e10:	ff 25 9a 32 20 00    	jmpq   *0x20329a(%rip)        # 6040b0 <connect@GLIBC_2.2.5>
  400e16:	68 13 00 00 00       	pushq  $0x13
  400e1b:	e9 b0 fe ff ff       	jmpq   400cd0 <.plt>

0000000000400e20 <gethostname@plt>:
  400e20:	ff 25 92 32 20 00    	jmpq   *0x203292(%rip)        # 6040b8 <gethostname@GLIBC_2.2.5>
  400e26:	68 14 00 00 00       	pushq  $0x14
  400e2b:	e9 a0 fe ff ff       	jmpq   400cd0 <.plt>

0000000000400e30 <clock_nanosleep@plt>:
  400e30:	ff 25 8a 32 20 00    	jmpq   *0x20328a(%rip)        # 6040c0 <clock_nanosleep@GLIBC_2.17>
  400e36:	68 15 00 00 00       	pushq  $0x15
  400e3b:	e9 90 fe ff ff       	jmpq   400cd0 <.plt>

0000000000400e40 <signal@plt>:
  400e40:	ff 25 82 32 20 00    	jmpq   *0x203282(%rip)        # 6040c8 <signal@GLIBC_2.2.5>
  400e46:	68 16 00 00 00       	pushq  $0x16
  400e4b:	e9 80 fe ff ff       	jmpq   400cd0 <.plt>

0000000000400e50 <socket@plt>:
  400e50:	ff 25 7a 32 20 00    	jmpq   *0x20327a(%rip)        # 6040d0 <socket@GLIBC_2.2.5>
  400e56:	68 17 00 00 00       	pushq  $0x17
  400e5b:	e9 70 fe ff ff       	jmpq   400cd0 <.plt>

0000000000400e60 <getenv@plt>:
  400e60:	ff 25 72 32 20 00    	jmpq   *0x203272(%rip)        # 6040d8 <getenv@GLIBC_2.2.5>
  400e66:	68 18 00 00 00       	pushq  $0x18
  400e6b:	e9 60 fe ff ff       	jmpq   400cd0 <.plt>

0000000000400e70 <alarm@plt>:
  400e70:	ff 25 6a 32 20 00    	jmpq   *0x20326a(%rip)        # 6040e0 <alarm@GLIBC_2.2.5>
  400e76:	68 19 00 00 00       	pushq  $0x19
  400e7b:	e9 50 fe ff ff       	jmpq   400cd0 <.plt>

0000000000400e80 <__errno_location@plt>:
  400e80:	ff 25 62 32 20 00    	jmpq   *0x203262(%rip)        # 6040e8 <__errno_location@GLIBC_2.2.5>
  400e86:	68 1a 00 00 00       	pushq  $0x1a
  400e8b:	e9 40 fe ff ff       	jmpq   400cd0 <.plt>

0000000000400e90 <strcpy@plt>:
  400e90:	ff 25 5a 32 20 00    	jmpq   *0x20325a(%rip)        # 6040f0 <strcpy@GLIBC_2.2.5>
  400e96:	68 1b 00 00 00       	pushq  $0x1b
  400e9b:	e9 30 fe ff ff       	jmpq   400cd0 <.plt>

0000000000400ea0 <fwrite@plt>:
  400ea0:	ff 25 52 32 20 00    	jmpq   *0x203252(%rip)        # 6040f8 <fwrite@GLIBC_2.2.5>
  400ea6:	68 1c 00 00 00       	pushq  $0x1c
  400eab:	e9 20 fe ff ff       	jmpq   400cd0 <.plt>

0000000000400eb0 <perror@plt>:
  400eb0:	ff 25 4a 32 20 00    	jmpq   *0x20324a(%rip)        # 604100 <perror@GLIBC_2.2.5>
  400eb6:	68 1d 00 00 00       	pushq  $0x1d
  400ebb:	e9 10 fe ff ff       	jmpq   400cd0 <.plt>

0000000000400ec0 <write@plt>:
  400ec0:	ff 25 42 32 20 00    	jmpq   *0x203242(%rip)        # 604108 <write@GLIBC_2.2.5>
  400ec6:	68 1e 00 00 00       	pushq  $0x1e
  400ecb:	e9 00 fe ff ff       	jmpq   400cd0 <.plt>

0000000000400ed0 <memcpy@plt>:
  400ed0:	ff 25 3a 32 20 00    	jmpq   *0x20323a(%rip)        # 604110 <memcpy@GLIBC_2.14>
  400ed6:	68 1f 00 00 00       	pushq  $0x1f
  400edb:	e9 f0 fd ff ff       	jmpq   400cd0 <.plt>

0000000000400ee0 <open@plt>:
  400ee0:	ff 25 32 32 20 00    	jmpq   *0x203232(%rip)        # 604118 <open@GLIBC_2.2.5>
  400ee6:	68 20 00 00 00       	pushq  $0x20
  400eeb:	e9 e0 fd ff ff       	jmpq   400cd0 <.plt>

0000000000400ef0 <mkdir@plt>:
  400ef0:	ff 25 2a 32 20 00    	jmpq   *0x20322a(%rip)        # 604120 <mkdir@GLIBC_2.2.5>
  400ef6:	68 21 00 00 00       	pushq  $0x21
  400efb:	e9 d0 fd ff ff       	jmpq   400cd0 <.plt>

0000000000400f00 <fflush@plt>:
  400f00:	ff 25 22 32 20 00    	jmpq   *0x203222(%rip)        # 604128 <fflush@GLIBC_2.2.5>
  400f06:	68 22 00 00 00       	pushq  $0x22
  400f0b:	e9 c0 fd ff ff       	jmpq   400cd0 <.plt>

Disassembly of section .text:

0000000000400f10 <_start>:
  400f10:	31 ed                	xor    %ebp,%ebp
  400f12:	49 89 d1             	mov    %rdx,%r9
  400f15:	5e                   	pop    %rsi
  400f16:	48 89 e2             	mov    %rsp,%rdx
  400f19:	48 83 e4 f0          	and    $0xfffffffffffffff0,%rsp
  400f1d:	50                   	push   %rax
  400f1e:	54                   	push   %rsp
  400f1f:	49 c7 c0 a0 29 40 00 	mov    $0x4029a0,%r8
  400f26:	48 c7 c1 30 29 40 00 	mov    $0x402930,%rcx
  400f2d:	48 c7 c7 fd 0f 40 00 	mov    $0x400ffd,%rdi
  400f34:	e8 57 fe ff ff       	callq  400d90 <__libc_start_main@plt>
  400f39:	f4                   	hlt
  400f3a:	66 0f 1f 44 00 00    	nopw   0x0(%rax,%rax,1)

0000000000400f40 <deregister_tm_clones>:
  400f40:	b8 e7 57 60 00       	mov    $0x6057e7,%eax
  400f45:	55                   	push   %rbp
  400f46:	48 2d e0 57 60 00    	sub    $0x6057e0,%rax
  400f4c:	48 83 f8 0e          	cmp    $0xe,%rax
  400f50:	48 89 e5             	mov    %rsp,%rbp
  400f53:	77 02                	ja     400f57 <deregister_tm_clones+0x17>
  400f55:	5d                   	pop    %rbp
  400f56:	c3                   	retq
  400f57:	b8 00 00 00 00       	mov    $0x0,%eax
  400f5c:	48 85 c0             	test   %rax,%rax
  400f5f:	74 f4                	je     400f55 <deregister_tm_clones+0x15>
  400f61:	5d                   	pop    %rbp
  400f62:	bf e0 57 60 00       	mov    $0x6057e0,%edi
  400f67:	ff e0                	jmpq   *%rax
  400f69:	0f 1f 80 00 00 00 00 	nopl   0x0(%rax)

0000000000400f70 <register_tm_clones>:
  400f70:	b8 e0 57 60 00       	mov    $0x6057e0,%eax
  400f75:	55                   	push   %rbp
  400f76:	48 2d e0 57 60 00    	sub    $0x6057e0,%rax
  400f7c:	48 c1 f8 03          	sar    $0x3,%rax
  400f80:	48 89 e5             	mov    %rsp,%rbp
  400f83:	48 89 c2             	mov    %rax,%rdx
  400f86:	48 c1 ea 3f          	shr    $0x3f,%rdx
  400f8a:	48 01 d0             	add    %rdx,%rax
  400f8d:	48 d1 f8             	sar    %rax
  400f90:	75 02                	jne    400f94 <register_tm_clones+0x24>
  400f92:	5d                   	pop    %rbp
  400f93:	c3                   	retq
  400f94:	ba 00 00 00 00       	mov    $0x0,%edx
  400f99:	48 85 d2             	test   %rdx,%rdx
  400f9c:	74 f4                	je     400f92 <register_tm_clones+0x22>
  400f9e:	5d                   	pop    %rbp
  400f9f:	48 89 c6             	mov    %rax,%rsi
  400fa2:	bf e0 57 60 00       	mov    $0x6057e0,%edi
  400fa7:	ff e2                	jmpq   *%rdx
  400fa9:	0f 1f 80 00 00 00 00 	nopl   0x0(%rax)

0000000000400fb0 <__do_global_dtors_aux>:
  400fb0:	80 3d 41 48 20 00 00 	cmpb   $0x0,0x204841(%rip)        # 6057f8 <completed.6355>
  400fb7:	75 11                	jne    400fca <__do_global_dtors_aux+0x1a>
  400fb9:	55                   	push   %rbp
  400fba:	48 89 e5             	mov    %rsp,%rbp
  400fbd:	e8 7e ff ff ff       	callq  400f40 <deregister_tm_clones>
  400fc2:	5d                   	pop    %rbp
  400fc3:	c6 05 2e 48 20 00 01 	movb   $0x1,0x20482e(%rip)        # 6057f8 <completed.6355>
  400fca:	f3 c3                	repz retq
  400fcc:	0f 1f 40 00          	nopl   0x0(%rax)

0000000000400fd0 <frame_dummy>:
  400fd0:	48 83 3d 28 2e 20 00 	cmpq   $0x0,0x202e28(%rip)        # 603e00 <__JCR_END__>
  400fd7:	00
  400fd8:	74 1e                	je     400ff8 <frame_dummy+0x28>
  400fda:	b8 00 00 00 00       	mov    $0x0,%eax
  400fdf:	48 85 c0             	test   %rax,%rax
  400fe2:	74 14                	je     400ff8 <frame_dummy+0x28>
  400fe4:	55                   	push   %rbp
  400fe5:	bf 00 3e 60 00       	mov    $0x603e00,%edi
  400fea:	48 89 e5             	mov    %rsp,%rbp
  400fed:	ff d0                	callq  *%rax
  400fef:	5d                   	pop    %rbp
  400ff0:	e9 7b ff ff ff       	jmpq   400f70 <register_tm_clones>
  400ff5:	0f 1f 00             	nopl   (%rax)
  400ff8:	e9 73 ff ff ff       	jmpq   400f70 <register_tm_clones>

0000000000400ffd <main>:
  400ffd:	53                   	push   %rbx
  400ffe:	83 ff 01             	cmp    $0x1,%edi
  401001:	75 10                	jne    401013 <main+0x16>
  401003:	48 8b 05 d6 47 20 00 	mov    0x2047d6(%rip),%rax        # 6057e0 <stdin@@GLIBC_2.2.5>
  40100a:	48 89 05 4f 48 20 00 	mov    %rax,0x20484f(%rip)        # 605860 <infile>
  401011:	eb 59                	jmp    40106c <main+0x6f>
  401013:	48 89 f3             	mov    %rsi,%rbx
  401016:	83 ff 02             	cmp    $0x2,%edi
  401019:	75 35                	jne    401050 <main+0x53>
  40101b:	48 8b 7e 08          	mov    0x8(%rsi),%rdi
  40101f:	be e2 2f 40 00       	mov    $0x402fe2,%esi
  401024:	e8 57 fd ff ff       	callq  400d80 <fopen@plt>
  401029:	48 89 05 30 48 20 00 	mov    %rax,0x204830(%rip)        # 605860 <infile>
  401030:	48 85 c0             	test   %rax,%rax
  401033:	75 37                	jne    40106c <main+0x6f>
  401035:	48 8b 53 08          	mov    0x8(%rbx),%rdx
  401039:	48 8b 33             	mov    (%rbx),%rsi
  40103c:	bf d0 29 40 00       	mov    $0x4029d0,%edi
  401041:	e8 9a fc ff ff       	callq  400ce0 <printf@plt>
  401046:	bf 08 00 00 00       	mov    $0x8,%edi
  40104b:	e8 00 fd ff ff       	callq  400d50 <exit@plt>
  401050:	48 8b 36             	mov    (%rsi),%rsi
  401053:	bf ed 29 40 00       	mov    $0x4029ed,%edi
  401058:	b8 00 00 00 00       	mov    $0x0,%eax
  40105d:	e8 7e fc ff ff       	callq  400ce0 <printf@plt>
  401062:	bf 08 00 00 00       	mov    $0x8,%edi
  401067:	e8 e4 fc ff ff       	callq  400d50 <exit@plt>
  40106c:	e8 79 0b 00 00       	callq  401bea <initialize_bomb>
  401071:	bf 58 2a 40 00       	mov    $0x402a58,%edi
  401076:	e8 b5 fc ff ff       	callq  400d30 <puts@plt>
  40107b:	bf 98 2a 40 00       	mov    $0x402a98,%edi
  401080:	e8 ab fc ff ff       	callq  400d30 <puts@plt>
  401085:	e8 6d 09 00 00       	callq  4019f7 <read_line>
  40108a:	48 89 c7             	mov    %rax,%rdi
  40108d:	e8 9e 00 00 00       	callq  401130 <phase_1>
  401092:	e8 a9 0a 00 00       	callq  401b40 <phase_defused>
  401097:	bf c8 2a 40 00       	mov    $0x402ac8,%edi
  40109c:	e8 8f fc ff ff       	callq  400d30 <puts@plt>
  4010a1:	e8 51 09 00 00       	callq  4019f7 <read_line>
  4010a6:	48 89 c7             	mov    %rax,%rdi
  4010a9:	e8 9e 00 00 00       	callq  40114c <phase_2>
  4010ae:	e8 8d 0a 00 00       	callq  401b40 <phase_defused>
  4010b3:	bf 07 2a 40 00       	mov    $0x402a07,%edi
  4010b8:	e8 73 fc ff ff       	callq  400d30 <puts@plt>
  4010bd:	e8 35 09 00 00       	callq  4019f7 <read_line>
  4010c2:	48 89 c7             	mov    %rax,%rdi
  4010c5:	e8 c5 00 00 00       	callq  40118f <phase_3>
  4010ca:	e8 71 0a 00 00       	callq  401b40 <phase_defused>
  4010cf:	bf 25 2a 40 00       	mov    $0x402a25,%edi
  4010d4:	e8 57 fc ff ff       	callq  400d30 <puts@plt>
  4010d9:	e8 19 09 00 00       	callq  4019f7 <read_line>
  4010de:	48 89 c7             	mov    %rax,%rdi
  4010e1:	e8 82 01 00 00       	callq  401268 <phase_4>
  4010e6:	e8 55 0a 00 00       	callq  401b40 <phase_defused>
  4010eb:	bf f8 2a 40 00       	mov    $0x402af8,%edi
  4010f0:	e8 3b fc ff ff       	callq  400d30 <puts@plt>
  4010f5:	e8 fd 08 00 00       	callq  4019f7 <read_line>
  4010fa:	48 89 c7             	mov    %rax,%rdi
  4010fd:	e8 c5 01 00 00       	callq  4012c7 <phase_5>
  401102:	e8 39 0a 00 00       	callq  401b40 <phase_defused>
  401107:	bf 34 2a 40 00       	mov    $0x402a34,%edi
  40110c:	e8 1f fc ff ff       	callq  400d30 <puts@plt>
  401111:	e8 e1 08 00 00       	callq  4019f7 <read_line>
  401116:	48 89 c7             	mov    %rax,%rdi
  401119:	e8 f6 01 00 00       	callq  401314 <phase_6>
  40111e:	e8 1d 0a 00 00       	callq  401b40 <phase_defused>
  401123:	b8 00 00 00 00       	mov    $0x0,%eax
  401128:	5b                   	pop    %rbx
  401129:	c3                   	retq
  40112a:	66 0f 1f 44 00 00    	nopw   0x0(%rax,%rax,1)

0000000000401130 <phase_1>:
  401130:	48 83 ec 08          	sub    $0x8,%rsp
  401134:	be 60 44 60 00       	mov    $0x604460,%esi
  401139:	e8 2c 06 00 00       	callq  40176a <strings_not_equal>
  40113e:	84 c0                	test   %al,%al
  401140:	74 05                	je     401147 <phase_1+0x17>
  401142:	e8 38 08 00 00       	callq  40197f <explode_bomb>
  401147:	48 83 c4 08          	add    $0x8,%rsp
  40114b:	c3                   	retq

void phase_2(const char* s) {
    long a[6];
    int n = read_six_numbers(s, a);
    if (a[0] != 3) explode_bomb();

    for (int i = 1; i <=5; ++i) {
        if (a[i-1] * a[i-1] != a[i]) explode_bomb();
    }
}
000000000040114c <phase_2>:
  40114c:  push   %rbx
  40114d:  sub    $0x30,%rsp
  401151:  mov    %rsp,%rsi
  401154:  callq  4019b5 <read_six_numbers>
  401159:  cmpq   $0x3,(%rsp)    // explode if *rsp != 3 (the first number read by read_six_numbers>
  40115e:  je     401165 <phase_2+0x19>
  401160:  callq  40197f <explode_bomb>
  401165:  mov    $0x1,%ebx     // ebx = 1
  40116a:  jmp    401183 <phase_2+0x37>
  40116c:  mov    -0x8(%rsp,%rbx,8),%rax // rax = rsp[rbx-1]
  401171:  add    %rax,%rax              // rax += rax
  401174:  cmp    %rax,(%rsp,%rbx,8)     // if (rax == rsp[rbx])
  401178:  je     40117f <phase_2+0x33>
  40117a:  callq  40197f <explode_bomb>
  40117f:  add    $0x1,%rbx
  401183:  cmp    $0x5,%rbx     // if (rbx <= 5) jmp 40116c
  401187:  jbe    40116c <phase_2+0x20>
  401189:  add    $0x30,%rsp
  40118d:  pop    %rbx
  40118e:  retq

void phase_3(const char* s) {
    int n = sscanf(s, "%ld %ld", rsp + 8, rsp);
    if (n <= 1) explode_bomb();

    n = *(rsp + 8) - 3;
    if ((unsigned) n > 7) explode_bomb();

    switch (n) {
    case 0:
        n = 0x57;
    case 1:
        n = 0x61;
    case 2:
        n = 0x27;
    case 3:
        n = 0x6a;
    case 5:
        n = 0x64;
    case 6:
        n = 0x6e;
    case 7:
        n = 0x34;
    case 8:
        n = 0x42;
    }

    if (n != *rsp) explode_bomb();
}
000000000040118f <phase_3>:
  40118f: sub    $0x18,%rsp
  401193: mov    %rsp,%rcx        // rcx = rsp
  401196: lea    0x8(%rsp),%rdx   // rdx = rsp + 8
  40119b: mov    $0x403078,%esi   // esi = "%ld %ld"
  4011a0: mov    $0x0,%eax        // eax = 0
  4011a5: callq  400d40 <__isoc99_sscanf@plt>
  4011aa: cmp    $0x1,%eax               // if (eax > 1)
  4011ad: jg     4011b4 <phase_3+0x25>
  4011af: callq  40197f <explode_bomb>
  4011b4: mov    0x8(%rsp),%rax   // rax = *(rsp + 8)
  4011b9: sub    $0x3,%rax        // rax -= 3
  4011bd: cmp    $0x7,%rax        // if ((unsigned) rax <= 7)
  4011c1: ja     4011fb <phase_3+0x6c>
  4011c3: jmpq   *0x402b40(,%rax,8)
  // jump table:
  // 0x402b40:       0x00000000004011ca      0x0000000000401207
  // 0x402b50:       0x00000000004011d1      0x00000000004011d8
  // 0x402b60:       0x00000000004011df      0x00000000004011e6
  // 0x402b70:       0x00000000004011ed      0x00000000004011f4

  4011ca: mov    $0x57,%eax
  4011cf: jmp    40120c <phase_3+0x7d>

  4011d1: mov    $0x61,%eax
  4011d6: jmp    40120c <phase_3+0x7d>

  4011d8: mov    $0x27,%eax
  4011dd: jmp    40120c <phase_3+0x7d>

  4011df: mov    $0x6a,%eax
  4011e4: jmp    40120c <phase_3+0x7d>

  4011e6: mov    $0x64,%eax
  4011eb: jmp    40120c <phase_3+0x7d>

  4011ed: mov    $0x6e,%eax
  4011f2: jmp    40120c <phase_3+0x7d>

  4011f4: mov    $0x34,%eax
  4011f9: jmp    40120c <phase_3+0x7d>

  4011fb: callq  40197f <explode_bomb>
  401200: mov    $0x0,%eax
  401205: jmp    40120c <phase_3+0x7d>

  401207: mov    $0x42,%eax

  40120c: cmp    (%rsp),%rax  // rax == *rsp
  401210: je     401217 <phase_3+0x88>
  401212: callq  40197f <explode_bomb>
  401217: add    $0x18,%rsp
  40121b: retq

int func4(int rdi, int rsi = 0, int rdx = 0xE) {
    // int rax = rdx - rsi;
    // int rcx = (unsigned) rax >> 63;
    // rax += rcx;
    // rax >>= 1;
    // rax += rsi;
    int rax = rsi + round((rdx - rsi) / 2);

    if (rax > rdi) {
        rdx = rax - 1;
        rax = func4(rdi, rsi, rdx, rcx);
        rax += rax;
    } else if (rax >= rdi) {
        eax = 0;
    } else {
        rsi = rax + 1;
        rax = func4(rdi, rsi, rdx, rcx);
        rax += rax + 1;
    }
    return rax;
}
000000000040121c <func4>:
  40121c: sub    $0x8,%rsp
  401220: mov    %rdx,%rax    // rax = rdx
  401223: sub    %rsi,%rax    // rax -= rsi
  401226: mov    %rax,%rcx    // rcx = rax
  401229: shr    $0x3f,%rcx   // unsigned rcx >>= 0x3f
  40122d: add    %rcx,%rax    // rax += rcx
  401230: sar    %rax         // rax >>= 1
  401233: add    %rsi,%rax    // rax += rsi

  401236: cmp    %rdi,%rax    // rax <= rdi
  401239: jle    401249 <func4+0x2d>

  40123b: lea    -0x1(%rax),%rdx  // rdx = rax - 1
  40123f: callq  40121c <func4>
  401244: add    %rax,%rax    // rax += rax
  401247: jmp    401263 <func4+0x47>

  401249: cmp    %rdi,%rax    // rax >= rdi
  40124c: jge    40125e <func4+0x42>

  40124e: lea    0x1(%rax),%rsi  // rsi = rax + 1
  401252: callq  40121c <func4>
  401257: lea    0x1(%rax,%rax,1),%rax  // rax = rax + rax + 1
  40125c: jmp    401263 <func4+0x47>

  40125e: mov    $0x0,%eax     // eax = 0
  401263: add    $0x8,%rsp
  401267: retq

void phase_4(const char* s) {
    int a, b;
    int n = sscanf(s, "%ld %ld", &a, &b);
    if (n != 2) explode_bomb();

    if (a < 0 || a > 0xE) explode_bomb();

    int rax = fun4(a, 0, 0xE);
    if (rax || b) explode_bomb();
}
0000000000401268 <phase_4>:
  401268:	sub    $0x18,%rsp
  40126c:	mov    %rsp,%rcx       // rcx = rsp
  40126f:	lea    0x8(%rsp),%rdx  // rdx = rsp + 8
  401274:	mov    $0x403078,%esi  // esi = "%ld %ld"
  401279:	mov    $0x0,%eax       // eax = 0;
  40127e:	callq  400d40 <__isoc99_sscanf@plt>
  401283:	cmp    $0x2,%eax       // eax == 2
  401286:	jne    401298 <phase_4+0x30>

  401288:	mov    0x8(%rsp),%rax  // rax = *(rsp + 8)
  40128d:	test   %rax,%rax       // rax < 0
  401290:	js     401298 <phase_4+0x30>

  401292:	cmp    $0xe,%rax       // rax <= 0xE
  401296:	jle    40129d <phase_4+0x35>

  401298:	callq  40197f <explode_bomb>

  40129d:	mov    $0xe,%edx         // edx = 0xE
  4012a2:	mov    $0x0,%esi         // esi = 0
  4012a7:	mov    0x8(%rsp),%rdi    // rdi = *(rsp + 8)
  4012ac:	callq  40121c <func4>    // func4(rdi, rsi, rdx)
  4012b1:	test   %rax,%rax         // rax != 0
  4012b4:	jne    4012bd <phase_4+0x55>

  4012b6:	cmpq   $0x0,(%rsp)       // *rsp == 0
  4012bb:	je     4012c2 <phase_4+0x5a>

  4012bd:	callq  40197f <explode_bomb>

  4012c2:	add    $0x18,%rsp
  4012c6:	retq

00000000004012c7 <phase_5>:
  4012c7:	53                   	push   %rbx
  4012c8:	48 89 fb             	mov    %rdi,%rbx
  4012cb:	e8 84 04 00 00       	callq  401754 <string_length>
  4012d0:	48 83 f8 06          	cmp    $0x6,%rax
  4012d4:	74 05                	je     4012db <phase_5+0x14>
  4012d6:	e8 a4 06 00 00       	callq  40197f <explode_bomb>
  4012db:	ba 00 00 00 00       	mov    $0x0,%edx
  4012e0:	b8 00 00 00 00       	mov    $0x0,%eax
  4012e5:	eb 17                	jmp    4012fe <phase_5+0x37>
  4012e7:	48 c1 e2 04          	shl    $0x4,%rdx
  4012eb:	0f b6 0c 03          	movzbl (%rbx,%rax,1),%ecx
  4012ef:	83 e1 0f             	and    $0xf,%ecx
  4012f2:	48 03 14 cd 80 2b 40 	add    0x402b80(,%rcx,8),%rdx
  4012f9:	00
  4012fa:	48 83 c0 01          	add    $0x1,%rax
  4012fe:	48 83 f8 05          	cmp    $0x5,%rax
  401302:	7e e3                	jle    4012e7 <phase_5+0x20>
  401304:	48 81 fa 62 49 82 00 	cmp    $0x824962,%rdx
  40130b:	74 05                	je     401312 <phase_5+0x4b>
  40130d:	e8 6d 06 00 00       	callq  40197f <explode_bomb>
  401312:	5b                   	pop    %rbx
  401313:	c3                   	retq

0000000000401314 <phase_6>:
  401314:	41 54                	push   %r12
  401316:	55                   	push   %rbp
  401317:	53                   	push   %rbx
  401318:	48 83 ec 60          	sub    $0x60,%rsp
  40131c:	48 8d 74 24 30       	lea    0x30(%rsp),%rsi
  401321:	e8 8f 06 00 00       	callq  4019b5 <read_six_numbers>
  401326:	bd 00 00 00 00       	mov    $0x0,%ebp
  40132b:	eb 3b                	jmp    401368 <phase_6+0x54>
  40132d:	48 8b 44 ec 30       	mov    0x30(%rsp,%rbp,8),%rax
  401332:	48 83 e8 01          	sub    $0x1,%rax
  401336:	48 83 f8 05          	cmp    $0x5,%rax
  40133a:	76 05                	jbe    401341 <phase_6+0x2d>
  40133c:	e8 3e 06 00 00       	callq  40197f <explode_bomb>
  401341:	4c 8d 65 01          	lea    0x1(%rbp),%r12
  401345:	4c 89 e3             	mov    %r12,%rbx
  401348:	eb 15                	jmp    40135f <phase_6+0x4b>
  40134a:	48 8b 44 dc 30       	mov    0x30(%rsp,%rbx,8),%rax
  40134f:	48 39 44 ec 30       	cmp    %rax,0x30(%rsp,%rbp,8)
  401354:	75 05                	jne    40135b <phase_6+0x47>
  401356:	e8 24 06 00 00       	callq  40197f <explode_bomb>
  40135b:	48 83 c3 01          	add    $0x1,%rbx
  40135f:	48 83 fb 05          	cmp    $0x5,%rbx
  401363:	7e e5                	jle    40134a <phase_6+0x36>
  401365:	4c 89 e5             	mov    %r12,%rbp
  401368:	48 83 fd 05          	cmp    $0x5,%rbp
  40136c:	7e bf                	jle    40132d <phase_6+0x19>
  40136e:	b9 00 00 00 00       	mov    $0x0,%ecx
  401373:	eb 23                	jmp    401398 <phase_6+0x84>
  401375:	48 8b 52 10          	mov    0x10(%rdx),%rdx
  401379:	48 83 c0 01          	add    $0x1,%rax
  40137d:	eb 0a                	jmp    401389 <phase_6+0x75>
  40137f:	b8 01 00 00 00       	mov    $0x1,%eax
  401384:	ba 40 43 60 00       	mov    $0x604340,%edx
  401389:	48 39 44 cc 30       	cmp    %rax,0x30(%rsp,%rcx,8)
  40138e:	7f e5                	jg     401375 <phase_6+0x61>
  401390:	48 89 14 cc          	mov    %rdx,(%rsp,%rcx,8)
  401394:	48 83 c1 01          	add    $0x1,%rcx
  401398:	48 83 f9 05          	cmp    $0x5,%rcx
  40139c:	7e e1                	jle    40137f <phase_6+0x6b>
  40139e:	48 8b 1c 24          	mov    (%rsp),%rbx
  4013a2:	48 89 d9             	mov    %rbx,%rcx
  4013a5:	b8 01 00 00 00       	mov    $0x1,%eax
  4013aa:	eb 0f                	jmp    4013bb <phase_6+0xa7>
  4013ac:	48 8b 14 c4          	mov    (%rsp,%rax,8),%rdx
  4013b0:	48 89 51 10          	mov    %rdx,0x10(%rcx)
  4013b4:	48 83 c0 01          	add    $0x1,%rax
  4013b8:	48 89 d1             	mov    %rdx,%rcx
  4013bb:	48 83 f8 05          	cmp    $0x5,%rax
  4013bf:	7e eb                	jle    4013ac <phase_6+0x98>
  4013c1:	48 c7 41 10 00 00 00 	movq   $0x0,0x10(%rcx)
  4013c8:	00
  4013c9:	bd 00 00 00 00       	mov    $0x0,%ebp
  4013ce:	eb 19                	jmp    4013e9 <phase_6+0xd5>
  4013d0:	48 8b 43 10          	mov    0x10(%rbx),%rax
  4013d4:	48 8b 00             	mov    (%rax),%rax
  4013d7:	48 39 03             	cmp    %rax,(%rbx)
  4013da:	7e 05                	jle    4013e1 <phase_6+0xcd>
  4013dc:	e8 9e 05 00 00       	callq  40197f <explode_bomb>
  4013e1:	48 8b 5b 10          	mov    0x10(%rbx),%rbx
  4013e5:	48 83 c5 01          	add    $0x1,%rbp
  4013e9:	48 83 fd 04          	cmp    $0x4,%rbp
  4013ed:	7e e1                	jle    4013d0 <phase_6+0xbc>
  4013ef:	48 83 c4 60          	add    $0x60,%rsp
  4013f3:	5b                   	pop    %rbx
  4013f4:	5d                   	pop    %rbp
  4013f5:	41 5c                	pop    %r12
  4013f7:	c3                   	retq

00000000004013f8 <fun7>:
  4013f8:	48 83 ec 08          	sub    $0x8,%rsp
  4013fc:	48 85 ff             	test   %rdi,%rdi
  4013ff:	74 38                	je     401439 <fun7+0x41>
  401401:	48 8b 02             	mov    (%rdx),%rax
  401404:	48 c1 e0 08          	shl    $0x8,%rax
  401408:	48 03 07             	add    (%rdi),%rax
  40140b:	48 89 02             	mov    %rax,(%rdx)
  40140e:	48 8b 07             	mov    (%rdi),%rax
  401411:	48 39 f0             	cmp    %rsi,%rax
  401414:	7e 0e                	jle    401424 <fun7+0x2c>
  401416:	48 8b 7f 08          	mov    0x8(%rdi),%rdi
  40141a:	e8 d9 ff ff ff       	callq  4013f8 <fun7>
  40141f:	48 01 c0             	add    %rax,%rax
  401422:	eb 23                	jmp    401447 <fun7+0x4f>
  401424:	48 39 f0             	cmp    %rsi,%rax
  401427:	74 19                	je     401442 <fun7+0x4a>
  401429:	48 8b 7f 10          	mov    0x10(%rdi),%rdi
  40142d:	e8 c6 ff ff ff       	callq  4013f8 <fun7>
  401432:	48 8d 44 00 01       	lea    0x1(%rax,%rax,1),%rax
  401437:	eb 0e                	jmp    401447 <fun7+0x4f>
  401439:	48 c7 c0 ff ff ff ff 	mov    $0xffffffffffffffff,%rax
  401440:	eb 05                	jmp    401447 <fun7+0x4f>
  401442:	b8 00 00 00 00       	mov    $0x0,%eax
  401447:	48 83 c4 08          	add    $0x8,%rsp
  40144b:	c3                   	retq

000000000040144c <secret_phase>:
  40144c:	48 83 ec 28          	sub    $0x28,%rsp
  401450:	e8 a2 05 00 00       	callq  4019f7 <read_line>
  401455:	48 c7 44 24 08 00 00 	movq   $0x0,0x8(%rsp)
  40145c:	00 00
  40145e:	48 8d 4c 24 10       	lea    0x10(%rsp),%rcx
  401463:	48 8d 54 24 18       	lea    0x18(%rsp),%rdx
  401468:	be 1c 2b 40 00       	mov    $0x402b1c,%esi
  40146d:	48 89 c7             	mov    %rax,%rdi
  401470:	b8 00 00 00 00       	mov    $0x0,%eax
  401475:	e8 c6 f8 ff ff       	callq  400d40 <__isoc99_sscanf@plt>
  40147a:	83 f8 02             	cmp    $0x2,%eax
  40147d:	74 05                	je     401484 <secret_phase+0x38>
  40147f:	e8 fb 04 00 00       	callq  40197f <explode_bomb>
  401484:	48 8b 44 24 18       	mov    0x18(%rsp),%rax
  401489:	48 83 e8 64          	sub    $0x64,%rax
  40148d:	48 83 f8 7a          	cmp    $0x7a,%rax
  401491:	76 05                	jbe    401498 <secret_phase+0x4c>
  401493:	e8 e7 04 00 00       	callq  40197f <explode_bomb>
  401498:	48 8d 54 24 08       	lea    0x8(%rsp),%rdx
  40149d:	48 8b 74 24 18       	mov    0x18(%rsp),%rsi
  4014a2:	bf 60 41 60 00       	mov    $0x604160,%edi
  4014a7:	e8 4c ff ff ff       	callq  4013f8 <fun7>
  4014ac:	48 83 f8 06          	cmp    $0x6,%rax
  4014b0:	74 05                	je     4014b7 <secret_phase+0x6b>
  4014b2:	e8 c8 04 00 00       	callq  40197f <explode_bomb>
  4014b7:	48 8b 44 24 10       	mov    0x10(%rsp),%rax
  4014bc:	48 39 44 24 08       	cmp    %rax,0x8(%rsp)
  4014c1:	74 05                	je     4014c8 <secret_phase+0x7c>
  4014c3:	e8 b7 04 00 00       	callq  40197f <explode_bomb>
  4014c8:	bf 00 2c 40 00       	mov    $0x402c00,%edi
  4014cd:	e8 5e f8 ff ff       	callq  400d30 <puts@plt>
  4014d2:	e8 69 06 00 00       	callq  401b40 <phase_defused>
  4014d7:	48 83 c4 28          	add    $0x28,%rsp
  4014db:	c3                   	retq
  4014dc:	0f 1f 40 00          	nopl   0x0(%rax)

00000000004014e0 <safe_print>:
  4014e0:	48 83 ec 08          	sub    $0x8,%rsp
  4014e4:	48 89 fe             	mov    %rdi,%rsi
  4014e7:	b8 00 00 00 00       	mov    $0x0,%eax
  4014ec:	48 c7 c1 ff ff ff ff 	mov    $0xffffffffffffffff,%rcx
  4014f3:	f2 ae                	repnz scas %es:(%rdi),%al
  4014f5:	48 f7 d1             	not    %rcx
  4014f8:	48 8d 51 ff          	lea    -0x1(%rcx),%rdx
  4014fc:	48 63 d2             	movslq %edx,%rdx
  4014ff:	bf 01 00 00 00       	mov    $0x1,%edi
  401504:	e8 b7 f9 ff ff       	callq  400ec0 <write@plt>
  401509:	89 05 41 43 20 00    	mov    %eax,0x204341(%rip)        # 605850 <returncode>
  40150f:	48 83 c4 08          	add    $0x8,%rsp
  401513:	c3                   	retq

0000000000401514 <sig_handler>:
  401514:	48 83 ec 08          	sub    $0x8,%rsp
  401518:	bf 28 2c 40 00       	mov    $0x402c28,%edi
  40151d:	e8 be ff ff ff       	callq  4014e0 <safe_print>
  401522:	bf 03 00 00 00       	mov    $0x3,%edi
  401527:	e8 d4 f8 ff ff       	callq  400e00 <sleep@plt>
  40152c:	bf 87 2f 40 00       	mov    $0x402f87,%edi
  401531:	e8 aa ff ff ff       	callq  4014e0 <safe_print>
  401536:	48 8b 3d b3 42 20 00 	mov    0x2042b3(%rip),%rdi        # 6057f0 <stdout@@GLIBC_2.2.5>
  40153d:	e8 be f9 ff ff       	callq  400f00 <fflush@plt>
  401542:	bf 01 00 00 00       	mov    $0x1,%edi
  401547:	e8 b4 f8 ff ff       	callq  400e00 <sleep@plt>
  40154c:	bf 8f 2f 40 00       	mov    $0x402f8f,%edi
  401551:	e8 8a ff ff ff       	callq  4014e0 <safe_print>
  401556:	bf 10 00 00 00       	mov    $0x10,%edi
  40155b:	e8 f0 f7 ff ff       	callq  400d50 <exit@plt>

0000000000401560 <delay_bomb>:
  401560:	48 81 ec a8 20 00 00 	sub    $0x20a8,%rsp
  401567:	bf 98 2f 40 00       	mov    $0x402f98,%edi
  40156c:	e8 ef f8 ff ff       	callq  400e60 <getenv@plt>
  401571:	48 85 c0             	test   %rax,%rax
  401574:	75 20                	jne    401596 <delay_bomb+0x36>
  401576:	48 8b 0d 6b 42 20 00 	mov    0x20426b(%rip),%rcx        # 6057e8 <stderr@@GLIBC_2.2.5>
  40157d:	ba 1a 00 00 00       	mov    $0x1a,%edx
  401582:	be 01 00 00 00       	mov    $0x1,%esi
  401587:	bf 9d 2f 40 00       	mov    $0x402f9d,%edi
  40158c:	e8 0f f9 ff ff       	callq  400ea0 <fwrite@plt>
  401591:	e9 8c 01 00 00       	jmpq   401722 <delay_bomb+0x1c2>
  401596:	48 89 c1             	mov    %rax,%rcx
  401599:	ba b8 2f 40 00       	mov    $0x402fb8,%edx
  40159e:	be 00 10 00 00       	mov    $0x1000,%esi
  4015a3:	48 89 e7             	mov    %rsp,%rdi
  4015a6:	b8 00 00 00 00       	mov    $0x0,%eax
  4015ab:	e8 40 f7 ff ff       	callq  400cf0 <snprintf@plt>
  4015b0:	3d ff 0f 00 00       	cmp    $0xfff,%eax
  4015b5:	76 20                	jbe    4015d7 <delay_bomb+0x77>
  4015b7:	48 8b 0d 2a 42 20 00 	mov    0x20422a(%rip),%rcx        # 6057e8 <stderr@@GLIBC_2.2.5>
  4015be:	ba 1b 00 00 00       	mov    $0x1b,%edx
  4015c3:	be 01 00 00 00       	mov    $0x1,%esi
  4015c8:	bf c2 2f 40 00       	mov    $0x402fc2,%edi
  4015cd:	e8 ce f8 ff ff       	callq  400ea0 <fwrite@plt>
  4015d2:	e9 4b 01 00 00       	jmpq   401722 <delay_bomb+0x1c2>
  4015d7:	be ff 01 00 00       	mov    $0x1ff,%esi
  4015dc:	48 89 e7             	mov    %rsp,%rdi
  4015df:	e8 0c f9 ff ff       	callq  400ef0 <mkdir@plt>
  4015e4:	85 c0                	test   %eax,%eax
  4015e6:	79 19                	jns    401601 <delay_bomb+0xa1>
  4015e8:	e8 93 f8 ff ff       	callq  400e80 <__errno_location@plt>
  4015ed:	83 38 11             	cmpl   $0x11,(%rax)
  4015f0:	74 0f                	je     401601 <delay_bomb+0xa1>
  4015f2:	bf de 2f 40 00       	mov    $0x402fde,%edi
  4015f7:	e8 b4 f8 ff ff       	callq  400eb0 <perror@plt>
  4015fc:	e9 21 01 00 00       	jmpq   401722 <delay_bomb+0x1c2>
  401601:	48 89 e6             	mov    %rsp,%rsi
  401604:	48 8d bc 24 00 10 00 	lea    0x1000(%rsp),%rdi
  40160b:	00
  40160c:	e8 7f f8 ff ff       	callq  400e90 <strcpy@plt>
  401611:	48 8d 8c 24 00 10 00 	lea    0x1000(%rsp),%rcx
  401618:	00
  401619:	ba e4 2f 40 00       	mov    $0x402fe4,%edx
  40161e:	be 00 10 00 00       	mov    $0x1000,%esi
  401623:	48 89 e7             	mov    %rsp,%rdi
  401626:	b8 00 00 00 00       	mov    $0x0,%eax
  40162b:	e8 c0 f6 ff ff       	callq  400cf0 <snprintf@plt>
  401630:	3d ff 0f 00 00       	cmp    $0xfff,%eax
  401635:	76 20                	jbe    401657 <delay_bomb+0xf7>
  401637:	48 8b 0d aa 41 20 00 	mov    0x2041aa(%rip),%rcx        # 6057e8 <stderr@@GLIBC_2.2.5>
  40163e:	ba 1b 00 00 00       	mov    $0x1b,%edx
  401643:	be 01 00 00 00       	mov    $0x1,%esi
  401648:	bf c2 2f 40 00       	mov    $0x402fc2,%edi
  40164d:	e8 4e f8 ff ff       	callq  400ea0 <fwrite@plt>
  401652:	e9 cb 00 00 00       	jmpq   401722 <delay_bomb+0x1c2>
  401657:	48 8d 94 24 10 20 00 	lea    0x2010(%rsp),%rdx
  40165e:	00
  40165f:	48 89 e6             	mov    %rsp,%rsi
  401662:	bf 01 00 00 00       	mov    $0x1,%edi
  401667:	e8 64 f7 ff ff       	callq  400dd0 <__xstat@plt>
  40166c:	85 c0                	test   %eax,%eax
  40166e:	79 3d                	jns    4016ad <delay_bomb+0x14d>
  401670:	e8 0b f8 ff ff       	callq  400e80 <__errno_location@plt>
  401675:	83 38 02             	cmpl   $0x2,(%rax)
  401678:	74 0f                	je     401689 <delay_bomb+0x129>
  40167a:	bf f9 2f 40 00       	mov    $0x402ff9,%edi
  40167f:	e8 2c f8 ff ff       	callq  400eb0 <perror@plt>
  401684:	e9 99 00 00 00       	jmpq   401722 <delay_bomb+0x1c2>
  401689:	be b6 01 00 00       	mov    $0x1b6,%esi
  40168e:	48 89 e7             	mov    %rsp,%rdi
  401691:	e8 1a f7 ff ff       	callq  400db0 <creat@plt>
  401696:	85 c0                	test   %eax,%eax
  401698:	79 0c                	jns    4016a6 <delay_bomb+0x146>
  40169a:	bf fe 2f 40 00       	mov    $0x402ffe,%edi
  40169f:	e8 0c f8 ff ff       	callq  400eb0 <perror@plt>
  4016a4:	eb 7c                	jmp    401722 <delay_bomb+0x1c2>
  4016a6:	89 c7                	mov    %eax,%edi
  4016a8:	e8 53 f6 ff ff       	callq  400d00 <close@plt>
  4016ad:	48 8b 84 24 58 20 00 	mov    0x2058(%rsp),%rax
  4016b4:	00
  4016b5:	48 8b 94 24 60 20 00 	mov    0x2060(%rsp),%rdx
  4016bc:	00
  4016bd:	48 89 84 24 00 20 00 	mov    %rax,0x2000(%rsp)
  4016c4:	00
  4016c5:	48 89 94 24 08 20 00 	mov    %rdx,0x2008(%rsp)
  4016cc:	00
  4016cd:	48 83 84 24 00 20 00 	addq   $0x5,0x2000(%rsp)
  4016d4:	00 05
  4016d6:	b9 00 00 00 00       	mov    $0x0,%ecx
  4016db:	48 8d 94 24 00 20 00 	lea    0x2000(%rsp),%rdx
  4016e2:	00
  4016e3:	be 01 00 00 00       	mov    $0x1,%esi
  4016e8:	bf 00 00 00 00       	mov    $0x0,%edi
  4016ed:	e8 3e f7 ff ff       	callq  400e30 <clock_nanosleep@plt>
  4016f2:	be 01 02 00 00       	mov    $0x201,%esi
  4016f7:	48 89 e7             	mov    %rsp,%rdi
  4016fa:	b8 00 00 00 00       	mov    $0x0,%eax
  4016ff:	e8 dc f7 ff ff       	callq  400ee0 <open@plt>
  401704:	85 c0                	test   %eax,%eax
  401706:	79 0c                	jns    401714 <delay_bomb+0x1b4>
  401708:	bf 04 30 40 00       	mov    $0x403004,%edi
  40170d:	e8 9e f7 ff ff       	callq  400eb0 <perror@plt>
  401712:	eb 18                	jmp    40172c <delay_bomb+0x1cc>
  401714:	89 c7                	mov    %eax,%edi
  401716:	e8 e5 f5 ff ff       	callq  400d00 <close@plt>
  40171b:	0f 1f 44 00 00       	nopl   0x0(%rax,%rax,1)
  401720:	eb 0a                	jmp    40172c <delay_bomb+0x1cc>
  401722:	bf 05 00 00 00       	mov    $0x5,%edi
  401727:	e8 d4 f6 ff ff       	callq  400e00 <sleep@plt>
  40172c:	48 81 c4 a8 20 00 00 	add    $0x20a8,%rsp
  401733:	c3                   	retq

0000000000401734 <invalid_phase>:
  401734:	48 83 ec 08          	sub    $0x8,%rsp
  401738:	48 89 fe             	mov    %rdi,%rsi
  40173b:	bf 09 30 40 00       	mov    $0x403009,%edi
  401740:	b8 00 00 00 00       	mov    $0x0,%eax
  401745:	e8 96 f5 ff ff       	callq  400ce0 <printf@plt>
  40174a:	bf 08 00 00 00       	mov    $0x8,%edi
  40174f:	e8 fc f5 ff ff       	callq  400d50 <exit@plt>

0000000000401754 <string_length>:
  401754:	b8 00 00 00 00       	mov    $0x0,%eax
  401759:	eb 08                	jmp    401763 <string_length+0xf>
  40175b:	48 83 c7 01          	add    $0x1,%rdi
  40175f:	48 83 c0 01          	add    $0x1,%rax
  401763:	80 3f 00             	cmpb   $0x0,(%rdi)
  401766:	75 f3                	jne    40175b <string_length+0x7>
  401768:	f3 c3                	repz retq

000000000040176a <strings_not_equal>:
  40176a:	41 54                	push   %r12
  40176c:	55                   	push   %rbp
  40176d:	53                   	push   %rbx
  40176e:	48 89 fb             	mov    %rdi,%rbx
  401771:	48 89 f5             	mov    %rsi,%rbp
  401774:	e8 db ff ff ff       	callq  401754 <string_length>
  401779:	49 89 c4             	mov    %rax,%r12
  40177c:	48 89 ef             	mov    %rbp,%rdi
  40177f:	e8 d0 ff ff ff       	callq  401754 <string_length>
  401784:	49 39 c4             	cmp    %rax,%r12
  401787:	75 1a                	jne    4017a3 <strings_not_equal+0x39>
  401789:	eb 0f                	jmp    40179a <strings_not_equal+0x30>
  40178b:	3a 45 00             	cmp    0x0(%rbp),%al
  40178e:	66 90                	xchg   %ax,%ax
  401790:	75 18                	jne    4017aa <strings_not_equal+0x40>
  401792:	48 83 c3 01          	add    $0x1,%rbx
  401796:	48 83 c5 01          	add    $0x1,%rbp
  40179a:	0f b6 03             	movzbl (%rbx),%eax
  40179d:	84 c0                	test   %al,%al
  40179f:	75 ea                	jne    40178b <strings_not_equal+0x21>
  4017a1:	eb 0c                	jmp    4017af <strings_not_equal+0x45>
  4017a3:	b8 01 00 00 00       	mov    $0x1,%eax
  4017a8:	eb 05                	jmp    4017af <strings_not_equal+0x45>
  4017aa:	b8 01 00 00 00       	mov    $0x1,%eax
  4017af:	5b                   	pop    %rbx
  4017b0:	5d                   	pop    %rbp
  4017b1:	41 5c                	pop    %r12
  4017b3:	c3                   	retq

00000000004017b4 <fs>:
  4017b4:	ba 00 00 00 00       	mov    $0x0,%edx
  4017b9:	eb 2d                	jmp    4017e8 <fs+0x34>
  4017bb:	83 e8 61             	sub    $0x61,%eax
  4017be:	3c 14                	cmp    $0x14,%al
  4017c0:	77 23                	ja     4017e5 <fs+0x31>
  4017c2:	0f b6 c0             	movzbl %al,%eax
  4017c5:	ff 24 c5 40 32 40 00 	jmpq   *0x403240(,%rax,8)
  4017cc:	c6 01 6f             	movb   $0x6f,(%rcx)
  4017cf:	eb 14                	jmp    4017e5 <fs+0x31>
  4017d1:	c6 01 69             	movb   $0x69,(%rcx)
  4017d4:	eb 0f                	jmp    4017e5 <fs+0x31>
  4017d6:	c6 01 65             	movb   $0x65,(%rcx)
  4017d9:	eb 0a                	jmp    4017e5 <fs+0x31>
  4017db:	c6 01 61             	movb   $0x61,(%rcx)
  4017de:	66 90                	xchg   %ax,%ax
  4017e0:	eb 03                	jmp    4017e5 <fs+0x31>
  4017e2:	c6 01 75             	movb   $0x75,(%rcx)
  4017e5:	83 c2 01             	add    $0x1,%edx
  4017e8:	48 63 ca             	movslq %edx,%rcx
  4017eb:	48 01 f9             	add    %rdi,%rcx
  4017ee:	0f b6 01             	movzbl (%rcx),%eax
  4017f1:	84 c0                	test   %al,%al
  4017f3:	75 c6                	jne    4017bb <fs+0x7>
  4017f5:	f3 c3                	repz retq

00000000004017f7 <initialize_bomb_solve>:
  4017f7:	f3 c3                	repz retq

00000000004017f9 <blank_line>:
  4017f9:	55                   	push   %rbp
  4017fa:	53                   	push   %rbx
  4017fb:	48 83 ec 08          	sub    $0x8,%rsp
  4017ff:	48 89 fb             	mov    %rdi,%rbx
  401802:	eb 17                	jmp    40181b <blank_line+0x22>
  401804:	e8 d7 f5 ff ff       	callq  400de0 <__ctype_b_loc@plt>
  401809:	48 8b 00             	mov    (%rax),%rax
  40180c:	48 83 c3 01          	add    $0x1,%rbx
  401810:	48 0f be ed          	movsbq %bpl,%rbp
  401814:	f6 44 68 01 20       	testb  $0x20,0x1(%rax,%rbp,2)
  401819:	74 0f                	je     40182a <blank_line+0x31>
  40181b:	0f b6 2b             	movzbl (%rbx),%ebp
  40181e:	40 84 ed             	test   %bpl,%bpl
  401821:	75 e1                	jne    401804 <blank_line+0xb>
  401823:	b8 01 00 00 00       	mov    $0x1,%eax
  401828:	eb 05                	jmp    40182f <blank_line+0x36>
  40182a:	b8 00 00 00 00       	mov    $0x0,%eax
  40182f:	48 83 c4 08          	add    $0x8,%rsp
  401833:	5b                   	pop    %rbx
  401834:	5d                   	pop    %rbp
  401835:	c3                   	retq

0000000000401836 <skip>:
  401836:	53                   	push   %rbx
  401837:	48 8b 05 1a 40 20 00 	mov    0x20401a(%rip),%rax        # 605858 <num_input_strings>
  40183e:	48 8d 3c 80          	lea    (%rax,%rax,4),%rdi
  401842:	48 c1 e7 04          	shl    $0x4,%rdi
  401846:	48 81 c7 80 58 60 00 	add    $0x605880,%rdi
  40184d:	48 8b 15 0c 40 20 00 	mov    0x20400c(%rip),%rdx        # 605860 <infile>
  401854:	be 50 00 00 00       	mov    $0x50,%esi
  401859:	e8 42 f5 ff ff       	callq  400da0 <fgets@plt>
  40185e:	48 89 c3             	mov    %rax,%rbx
  401861:	48 85 c0             	test   %rax,%rax
  401864:	74 0c                	je     401872 <skip+0x3c>
  401866:	48 89 c7             	mov    %rax,%rdi
  401869:	e8 8b ff ff ff       	callq  4017f9 <blank_line>
  40186e:	85 c0                	test   %eax,%eax
  401870:	75 c5                	jne    401837 <skip+0x1>
  401872:	48 89 d8             	mov    %rbx,%rax
  401875:	5b                   	pop    %rbx
  401876:	c3                   	retq

0000000000401877 <send_msg>:
  401877:	53                   	push   %rbx
  401878:	48 81 ec 10 40 00 00 	sub    $0x4010,%rsp
  40187f:	89 fb                	mov    %edi,%ebx
  401881:	83 ff 01             	cmp    $0x1,%edi
  401884:	74 24                	je     4018aa <send_msg+0x33>
  401886:	83 ff 01             	cmp    $0x1,%edi
  401889:	72 07                	jb     401892 <send_msg+0x1b>
  40188b:	83 ff 02             	cmp    $0x2,%edi
  40188e:	74 0a                	je     40189a <send_msg+0x23>
  401890:	eb 10                	jmp    4018a2 <send_msg+0x2b>
  401892:	41 b8 1a 30 40 00    	mov    $0x40301a,%r8d
  401898:	eb 16                	jmp    4018b0 <send_msg+0x39>
  40189a:	41 b8 2b 30 40 00    	mov    $0x40302b,%r8d
  4018a0:	eb 0e                	jmp    4018b0 <send_msg+0x39>
  4018a2:	41 b8 30 30 40 00    	mov    $0x403030,%r8d
  4018a8:	eb 06                	jmp    4018b0 <send_msg+0x39>
  4018aa:	41 b8 23 30 40 00    	mov    $0x403023,%r8d
  4018b0:	4c 8b 0d a1 3f 20 00 	mov    0x203fa1(%rip),%r9        # 605858 <num_input_strings>
  4018b7:	4b 8d 54 89 fb       	lea    -0x5(%r9,%r9,4),%rdx
  4018bc:	48 89 d0             	mov    %rdx,%rax
  4018bf:	48 c1 e0 04          	shl    $0x4,%rax
  4018c3:	48 8d 90 80 58 60 00 	lea    0x605880(%rax),%rdx
  4018ca:	48 89 d7             	mov    %rdx,%rdi
  4018cd:	b8 00 00 00 00       	mov    $0x0,%eax
  4018d2:	48 c7 c1 ff ff ff ff 	mov    $0xffffffffffffffff,%rcx
  4018d9:	f2 ae                	repnz scas %es:(%rdi),%al
  4018db:	48 f7 d1             	not    %rcx
  4018de:	48 83 c1 63          	add    $0x63,%rcx
  4018e2:	48 81 f9 00 20 00 00 	cmp    $0x2000,%rcx
  4018e9:	76 1d                	jbe    401908 <send_msg+0x91>
  4018eb:	83 fb 02             	cmp    $0x2,%ebx
  4018ee:	0f 84 82 00 00 00    	je     401976 <send_msg+0xff>
  4018f4:	bf 68 2c 40 00       	mov    $0x402c68,%edi
  4018f9:	e8 e2 f3 ff ff       	callq  400ce0 <printf@plt>
  4018fe:	bf 08 00 00 00       	mov    $0x8,%edi
  401903:	e8 48 f4 ff ff       	callq  400d50 <exit@plt>
  401908:	48 89 14 24          	mov    %rdx,(%rsp)
  40190c:	b9 c0 4c 60 00       	mov    $0x604cc0,%ecx
  401911:	8b 15 a9 3b 20 00    	mov    0x203ba9(%rip),%edx        # 6054c0 <bomb_id>
  401917:	be 38 30 40 00       	mov    $0x403038,%esi
  40191c:	48 8d bc 24 10 20 00 	lea    0x2010(%rsp),%rdi
  401923:	00
  401924:	b8 00 00 00 00       	mov    $0x0,%eax
  401929:	e8 c2 f4 ff ff       	callq  400df0 <sprintf@plt>
  40192e:	4c 8d 4c 24 10       	lea    0x10(%rsp),%r9
  401933:	41 b8 00 00 00 00    	mov    $0x0,%r8d
  401939:	48 8d 8c 24 10 20 00 	lea    0x2010(%rsp),%rcx
  401940:	00
  401941:	ba c0 44 60 00       	mov    $0x6044c0,%edx
  401946:	be c0 48 60 00       	mov    $0x6048c0,%esi
  40194b:	bf c0 50 60 00       	mov    $0x6050c0,%edi
  401950:	e8 64 0f 00 00       	callq  4028b9 <driver_post>
  401955:	c1 e8 1f             	shr    $0x1f,%eax
  401958:	83 fb 02             	cmp    $0x2,%ebx
  40195b:	0f 95 c2             	setne  %dl
  40195e:	84 c2                	test   %al,%dl
  401960:	74 14                	je     401976 <send_msg+0xff>
  401962:	48 8d 7c 24 10       	lea    0x10(%rsp),%rdi
  401967:	e8 c4 f3 ff ff       	callq  400d30 <puts@plt>
  40196c:	bf 00 00 00 00       	mov    $0x0,%edi
  401971:	e8 da f3 ff ff       	callq  400d50 <exit@plt>
  401976:	48 81 c4 10 40 00 00 	add    $0x4010,%rsp
  40197d:	5b                   	pop    %rbx
  40197e:	c3                   	retq

000000000040197f <explode_bomb>:
  40197f:	48 83 ec 08          	sub    $0x8,%rsp
  401983:	bf 48 30 40 00       	mov    $0x403048,%edi
  401988:	e8 a3 f3 ff ff       	callq  400d30 <puts@plt>
  40198d:	bf 51 30 40 00       	mov    $0x403051,%edi
  401992:	e8 99 f3 ff ff       	callq  400d30 <puts@plt>
  401997:	bf 00 00 00 00       	mov    $0x0,%edi
  40199c:	e8 d6 fe ff ff       	callq  401877 <send_msg>
  4019a1:	bf 90 2c 40 00       	mov    $0x402c90,%edi
  4019a6:	e8 85 f3 ff ff       	callq  400d30 <puts@plt>
  4019ab:	bf 08 00 00 00       	mov    $0x8,%edi
  4019b0:	e8 9b f3 ff ff       	callq  400d50 <exit@plt>


int read_six_numbers(const char *rdi, long* rsi) {
    int n = sscanf(rdi, "%ld %ld %ld %ld %ld %ld", rsi, rsi+8, rsi+16, rsi + 24, rsi + 32, rsi + 40);
    if (n <= 5)
        explode_bomb();
    return n;
}

00000000004019b5 <read_six_numbers>:
  4019b5:	48 83 ec 18          	sub    $0x18,%rsp         // rsp -= 0x18
  4019b9:	48 89 f2             	mov    %rsi,%rdx          // rdx = rsi
  4019bc:	48 8d 76 28          	lea    0x28(%rsi),%rsi    // rsi = rsi + 0x28
  4019c0:	48 8d 42 20          	lea    0x20(%rdx),%rax    // rax = rdx + 0x20
  4019c4:	48 8d 4a 08          	lea    0x8(%rdx),%rcx     // rcx = rdx + 0x8
  4019c8:	48 89 74 24 08       	mov    %rsi,0x8(%rsp)     // *(rsp + 0x8) = rsi
  4019cd:	48 89 04 24          	mov    %rax,(%rsp)        // *rsp = rax
  4019d1:	4c 8d 4a 18          	lea    0x18(%rdx),%r9     // r9 = rdx + 0x18
  4019d5:	4c 8d 42 10          	lea    0x10(%rdx),%r8     // r8 = rdx + 0x10
  4019d9:	be 68 30 40 00       	mov    $0x403068,%esi     // "%ld %ld %ld %ld %ld %ld"
  4019de:	b8 00 00 00 00       	mov    $0x0,%eax          // eax = 0
  4019e3:	e8 58 f3 ff ff       	callq  400d40 <__isoc99_sscanf@plt>
  4019e8:	83 f8 05             	cmp    $0x5,%eax          // if (eax > 5)
  4019eb:	7f 05                	jg     4019f2 <read_six_numbers+0x3d>
  4019ed:	e8 8d ff ff ff       	callq  40197f <explode_bomb>
  4019f2:	48 83 c4 18          	add    $0x18,%rsp
  4019f6:	c3                   	retq

00000000004019f7 <read_line>:
  4019f7:	53                   	push   %rbx
  4019f8:	e8 39 fe ff ff       	callq  401836 <skip>
  4019fd:	48 85 c0             	test   %rax,%rax
  401a00:	75 69                	jne    401a6b <read_line+0x74>
  401a02:	48 8b 05 d7 3d 20 00 	mov    0x203dd7(%rip),%rax        # 6057e0 <stdin@@GLIBC_2.2.5>
  401a09:	48 39 05 50 3e 20 00 	cmp    %rax,0x203e50(%rip)        # 605860 <infile>
  401a10:	75 14                	jne    401a26 <read_line+0x2f>
  401a12:	bf 80 30 40 00       	mov    $0x403080,%edi
  401a17:	e8 14 f3 ff ff       	callq  400d30 <puts@plt>
  401a1c:	bf 00 00 00 00       	mov    $0x0,%edi
  401a21:	e8 2a f3 ff ff       	callq  400d50 <exit@plt>
  401a26:	bf 9e 30 40 00       	mov    $0x40309e,%edi
  401a2b:	e8 30 f4 ff ff       	callq  400e60 <getenv@plt>
  401a30:	48 85 c0             	test   %rax,%rax
  401a33:	74 0a                	je     401a3f <read_line+0x48>
  401a35:	bf 00 00 00 00       	mov    $0x0,%edi
  401a3a:	e8 11 f3 ff ff       	callq  400d50 <exit@plt>
  401a3f:	48 8b 05 9a 3d 20 00 	mov    0x203d9a(%rip),%rax        # 6057e0 <stdin@@GLIBC_2.2.5>
  401a46:	48 89 05 13 3e 20 00 	mov    %rax,0x203e13(%rip)        # 605860 <infile>
  401a4d:	e8 e4 fd ff ff       	callq  401836 <skip>
  401a52:	48 85 c0             	test   %rax,%rax
  401a55:	75 14                	jne    401a6b <read_line+0x74>
  401a57:	bf 80 30 40 00       	mov    $0x403080,%edi
  401a5c:	e8 cf f2 ff ff       	callq  400d30 <puts@plt>
  401a61:	bf 00 00 00 00       	mov    $0x0,%edi
  401a66:	e8 e5 f2 ff ff       	callq  400d50 <exit@plt>
  401a6b:	48 8b 15 e6 3d 20 00 	mov    0x203de6(%rip),%rdx        # 605858 <num_input_strings>
  401a72:	48 8d 04 92          	lea    (%rdx,%rdx,4),%rax
  401a76:	48 c1 e0 04          	shl    $0x4,%rax
  401a7a:	48 8d 98 80 58 60 00 	lea    0x605880(%rax),%rbx
  401a81:	48 89 df             	mov    %rbx,%rdi
  401a84:	b8 00 00 00 00       	mov    $0x0,%eax
  401a89:	48 c7 c1 ff ff ff ff 	mov    $0xffffffffffffffff,%rcx
  401a90:	f2 ae                	repnz scas %es:(%rdi),%al
  401a92:	48 f7 d1             	not    %rcx
  401a95:	48 83 e9 01          	sub    $0x1,%rcx
  401a99:	48 83 f9 4e          	cmp    $0x4e,%rcx
  401a9d:	76 47                	jbe    401ae6 <read_line+0xef>
  401a9f:	bf a9 30 40 00       	mov    $0x4030a9,%edi
  401aa4:	e8 87 f2 ff ff       	callq  400d30 <puts@plt>
  401aa9:	48 8b 05 a8 3d 20 00 	mov    0x203da8(%rip),%rax        # 605858 <num_input_strings>
  401ab0:	48 8d 50 01          	lea    0x1(%rax),%rdx
  401ab4:	48 89 15 9d 3d 20 00 	mov    %rdx,0x203d9d(%rip)        # 605858 <num_input_strings>
  401abb:	48 6b c0 50          	imul   $0x50,%rax,%rax
  401abf:	48 bb 2a 2a 2a 74 72 	movabs $0x636e7572742a2a2a,%rbx
  401ac6:	75 6e 63
  401ac9:	48 89 98 80 58 60 00 	mov    %rbx,0x605880(%rax)
  401ad0:	48 bb 61 74 65 64 2a 	movabs $0x2a2a2a64657461,%rbx
  401ad7:	2a 2a 00
  401ada:	48 89 98 88 58 60 00 	mov    %rbx,0x605888(%rax)
  401ae1:	e8 99 fe ff ff       	callq  40197f <explode_bomb>
  401ae6:	48 8d 34 92          	lea    (%rdx,%rdx,4),%rsi
  401aea:	48 c1 e6 04          	shl    $0x4,%rsi
  401aee:	80 bc 31 7f 58 60 00 	cmpb   $0xa,0x60587f(%rcx,%rsi,1)
  401af5:	0a
  401af6:	75 10                	jne    401b08 <read_line+0x111>
  401af8:	48 8d 34 92          	lea    (%rdx,%rdx,4),%rsi
  401afc:	48 c1 e6 04          	shl    $0x4,%rsi
  401b00:	c6 84 31 7f 58 60 00 	movb   $0x0,0x60587f(%rcx,%rsi,1)
  401b07:	00
  401b08:	48 83 e9 02          	sub    $0x2,%rcx
  401b0c:	48 8d 34 92          	lea    (%rdx,%rdx,4),%rsi
  401b10:	48 c1 e6 04          	shl    $0x4,%rsi
  401b14:	80 bc 31 80 58 60 00 	cmpb   $0xd,0x605880(%rcx,%rsi,1)
  401b1b:	0d
  401b1c:	75 08                	jne    401b26 <read_line+0x12f>
  401b1e:	c6 84 31 80 58 60 00 	movb   $0x0,0x605880(%rcx,%rsi,1)
  401b25:	00
  401b26:	48 83 c2 01          	add    $0x1,%rdx
  401b2a:	48 89 15 27 3d 20 00 	mov    %rdx,0x203d27(%rip)        # 605858 <num_input_strings>
  401b31:	bf 02 00 00 00       	mov    $0x2,%edi
  401b36:	e8 3c fd ff ff       	callq  401877 <send_msg>
  401b3b:	48 89 d8             	mov    %rbx,%rax
  401b3e:	5b                   	pop    %rbx
  401b3f:	c3                   	retq

0000000000401b40 <phase_defused>:
  401b40:	48 83 ec 78          	sub    $0x78,%rsp
  401b44:	bf 01 00 00 00       	mov    $0x1,%edi
  401b49:	e8 29 fd ff ff       	callq  401877 <send_msg>
  401b4e:	48 83 3d 02 3d 20 00 	cmpq   $0x6,0x203d02(%rip)        # 605858 <num_input_strings>
  401b55:	06
  401b56:	0f 85 83 00 00 00    	jne    401bdf <phase_defused+0x9f>
  401b5c:	4c 8d 4c 24 08       	lea    0x8(%rsp),%r9
  401b61:	4c 8d 44 24 20       	lea    0x20(%rsp),%r8
  401b66:	48 8d 4c 24 10       	lea    0x10(%rsp),%rcx
  401b6b:	48 8d 54 24 18       	lea    0x18(%rsp),%rdx
  401b70:	be c4 30 40 00       	mov    $0x4030c4,%esi
  401b75:	bf 70 59 60 00       	mov    $0x605970,%edi
  401b7a:	b8 00 00 00 00       	mov    $0x0,%eax
  401b7f:	e8 bc f1 ff ff       	callq  400d40 <__isoc99_sscanf@plt>
  401b84:	83 f8 04             	cmp    $0x4,%eax
  401b87:	75 42                	jne    401bcb <phase_defused+0x8b>
  401b89:	48 8d 7c 24 20       	lea    0x20(%rsp),%rdi
  401b8e:	e8 c1 fb ff ff       	callq  401754 <string_length>
  401b93:	48 3b 44 24 08       	cmp    0x8(%rsp),%rax
  401b98:	75 31                	jne    401bcb <phase_defused+0x8b>
  401b9a:	be 00 44 60 00       	mov    $0x604400,%esi
  401b9f:	48 8d 7c 24 20       	lea    0x20(%rsp),%rdi
  401ba4:	e8 c1 fb ff ff       	callq  40176a <strings_not_equal>
  401ba9:	84 c0                	test   %al,%al
  401bab:	75 1e                	jne    401bcb <phase_defused+0x8b>
  401bad:	bf b8 2c 40 00       	mov    $0x402cb8,%edi
  401bb2:	e8 79 f1 ff ff       	callq  400d30 <puts@plt>
  401bb7:	bf e0 2c 40 00       	mov    $0x402ce0,%edi
  401bbc:	e8 6f f1 ff ff       	callq  400d30 <puts@plt>
  401bc1:	b8 00 00 00 00       	mov    $0x0,%eax
  401bc6:	e8 81 f8 ff ff       	callq  40144c <secret_phase>
  401bcb:	bf 18 2d 40 00       	mov    $0x402d18,%edi
  401bd0:	e8 5b f1 ff ff       	callq  400d30 <puts@plt>
  401bd5:	bf 48 2d 40 00       	mov    $0x402d48,%edi
  401bda:	e8 51 f1 ff ff       	callq  400d30 <puts@plt>
  401bdf:	48 83 c4 78          	add    $0x78,%rsp
  401be3:	c3                   	retq

0000000000401be4 <checkhash>:
  401be4:	b8 01 00 00 00       	mov    $0x1,%eax
  401be9:	c3                   	retq

0000000000401bea <initialize_bomb>:
  401bea:	53                   	push   %rbx
  401beb:	48 81 ec 40 20 00 00 	sub    $0x2040,%rsp
  401bf2:	be 14 15 40 00       	mov    $0x401514,%esi
  401bf7:	bf 02 00 00 00       	mov    $0x2,%edi
  401bfc:	e8 3f f2 ff ff       	callq  400e40 <signal@plt>
  401c01:	bf 60 44 60 00       	mov    $0x604460,%edi
  401c06:	e8 a9 fb ff ff       	callq  4017b4 <fs>
  401c0b:	bf 00 44 60 00       	mov    $0x604400,%edi
  401c10:	e8 9f fb ff ff       	callq  4017b4 <fs>
  401c15:	bf 00 58 60 00       	mov    $0x605800,%edi
  401c1a:	e8 95 fb ff ff       	callq  4017b4 <fs>
  401c1f:	e8 c0 ff ff ff       	callq  401be4 <checkhash>
  401c24:	85 c0                	test   %eax,%eax
  401c26:	75 14                	jne    401c3c <initialize_bomb+0x52>
  401c28:	bf 90 2d 40 00       	mov    $0x402d90,%edi
  401c2d:	e8 fe f0 ff ff       	callq  400d30 <puts@plt>
  401c32:	bf 08 00 00 00       	mov    $0x8,%edi
  401c37:	e8 14 f1 ff ff       	callq  400d50 <exit@plt>
  401c3c:	be 40 00 00 00       	mov    $0x40,%esi
  401c41:	48 8d bc 24 00 20 00 	lea    0x2000(%rsp),%rdi
  401c48:	00
  401c49:	e8 d2 f1 ff ff       	callq  400e20 <gethostname@plt>
  401c4e:	85 c0                	test   %eax,%eax
  401c50:	74 2a                	je     401c7c <initialize_bomb+0x92>
  401c52:	bf 40 2e 40 00       	mov    $0x402e40,%edi
  401c57:	e8 d4 f0 ff ff       	callq  400d30 <puts@plt>
  401c5c:	bf 08 00 00 00       	mov    $0x8,%edi
  401c61:	e8 ea f0 ff ff       	callq  400d50 <exit@plt>
  401c66:	48 8d b4 24 00 20 00 	lea    0x2000(%rsp),%rsi
  401c6d:	00
  401c6e:	e8 ed f0 ff ff       	callq  400d60 <strcasecmp@plt>
  401c73:	85 c0                	test   %eax,%eax
  401c75:	74 21                	je     401c98 <initialize_bomb+0xae>
  401c77:	83 c3 01             	add    $0x1,%ebx
  401c7a:	eb 05                	jmp    401c81 <initialize_bomb+0x97>
  401c7c:	bb 00 00 00 00       	mov    $0x0,%ebx
  401c81:	48 63 c3             	movslq %ebx,%rax
  401c84:	48 8b 3c c5 20 55 60 	mov    0x605520(,%rax,8),%rdi
  401c8b:	00
  401c8c:	48 85 ff             	test   %rdi,%rdi
  401c8f:	75 d5                	jne    401c66 <initialize_bomb+0x7c>
  401c91:	b8 00 00 00 00       	mov    $0x0,%eax
  401c96:	eb 05                	jmp    401c9d <initialize_bomb+0xb3>
  401c98:	b8 01 00 00 00       	mov    $0x1,%eax
  401c9d:	85 c0                	test   %eax,%eax
  401c9f:	75 14                	jne    401cb5 <initialize_bomb+0xcb>
  401ca1:	bf 78 2e 40 00       	mov    $0x402e78,%edi
  401ca6:	e8 85 f0 ff ff       	callq  400d30 <puts@plt>
  401cab:	bf 08 00 00 00       	mov    $0x8,%edi
  401cb0:	e8 9b f0 ff ff       	callq  400d50 <exit@plt>
  401cb5:	48 89 e7             	mov    %rsp,%rdi
  401cb8:	e8 33 0a 00 00       	callq  4026f0 <init_driver>
  401cbd:	85 c0                	test   %eax,%eax
  401cbf:	79 1c                	jns    401cdd <initialize_bomb+0xf3>
  401cc1:	48 89 e6             	mov    %rsp,%rsi
  401cc4:	bf d3 30 40 00       	mov    $0x4030d3,%edi
  401cc9:	b8 00 00 00 00       	mov    $0x0,%eax
  401cce:	e8 0d f0 ff ff       	callq  400ce0 <printf@plt>
  401cd3:	bf 08 00 00 00       	mov    $0x8,%edi
  401cd8:	e8 73 f0 ff ff       	callq  400d50 <exit@plt>
  401cdd:	e8 7e f8 ff ff       	callq  401560 <delay_bomb>
  401ce2:	48 81 c4 40 20 00 00 	add    $0x2040,%rsp
  401ce9:	5b                   	pop    %rbx
  401cea:	c3                   	retq
  401ceb:	0f 1f 44 00 00       	nopl   0x0(%rax,%rax,1)

0000000000401cf0 <rio_readinitb>:
  401cf0:	89 37                	mov    %esi,(%rdi)
  401cf2:	c7 47 04 00 00 00 00 	movl   $0x0,0x4(%rdi)
  401cf9:	48 8d 47 10          	lea    0x10(%rdi),%rax
  401cfd:	48 89 47 08          	mov    %rax,0x8(%rdi)
  401d01:	c3                   	retq

0000000000401d02 <sigalrm_handler>:
  401d02:	48 83 ec 08          	sub    $0x8,%rsp
  401d06:	bf a0 57 60 00       	mov    $0x6057a0,%edi
  401d0b:	b8 00 00 00 00       	mov    $0x0,%eax
  401d10:	48 c7 c1 ff ff ff ff 	mov    $0xffffffffffffffff,%rcx
  401d17:	f2 ae                	repnz scas %es:(%rdi),%al
  401d19:	48 f7 d1             	not    %rcx
  401d1c:	48 8d 51 ff          	lea    -0x1(%rcx),%rdx
  401d20:	be a0 57 60 00       	mov    $0x6057a0,%esi
  401d25:	bf 02 00 00 00       	mov    $0x2,%edi
  401d2a:	e8 91 f1 ff ff       	callq  400ec0 <write@plt>
  401d2f:	bf 01 00 00 00       	mov    $0x1,%edi
  401d34:	e8 17 f0 ff ff       	callq  400d50 <exit@plt>

0000000000401d39 <urlencode>:
  401d39:	41 54                	push   %r12
  401d3b:	55                   	push   %rbp
  401d3c:	53                   	push   %rbx
  401d3d:	48 83 ec 10          	sub    $0x10,%rsp
  401d41:	48 89 fb             	mov    %rdi,%rbx
  401d44:	48 89 f5             	mov    %rsi,%rbp
  401d47:	b8 00 00 00 00       	mov    $0x0,%eax
  401d4c:	48 c7 c1 ff ff ff ff 	mov    $0xffffffffffffffff,%rcx
  401d53:	f2 ae                	repnz scas %es:(%rdi),%al
  401d55:	48 f7 d1             	not    %rcx
  401d58:	8d 41 ff             	lea    -0x1(%rcx),%eax
  401d5b:	e9 93 00 00 00       	jmpq   401df3 <urlencode+0xba>
  401d60:	0f b6 13             	movzbl (%rbx),%edx
  401d63:	80 fa 2a             	cmp    $0x2a,%dl
  401d66:	0f 94 c1             	sete   %cl
  401d69:	80 fa 2d             	cmp    $0x2d,%dl
  401d6c:	0f 94 c0             	sete   %al
  401d6f:	08 c1                	or     %al,%cl
  401d71:	75 1f                	jne    401d92 <urlencode+0x59>
  401d73:	80 fa 2e             	cmp    $0x2e,%dl
  401d76:	74 1a                	je     401d92 <urlencode+0x59>
  401d78:	80 fa 5f             	cmp    $0x5f,%dl
  401d7b:	74 15                	je     401d92 <urlencode+0x59>
  401d7d:	8d 42 d0             	lea    -0x30(%rdx),%eax
  401d80:	3c 09                	cmp    $0x9,%al
  401d82:	76 0e                	jbe    401d92 <urlencode+0x59>
  401d84:	8d 42 bf             	lea    -0x41(%rdx),%eax
  401d87:	3c 19                	cmp    $0x19,%al
  401d89:	76 07                	jbe    401d92 <urlencode+0x59>
  401d8b:	8d 42 9f             	lea    -0x61(%rdx),%eax
  401d8e:	3c 19                	cmp    $0x19,%al
  401d90:	77 09                	ja     401d9b <urlencode+0x62>
  401d92:	88 55 00             	mov    %dl,0x0(%rbp)
  401d95:	48 8d 6d 01          	lea    0x1(%rbp),%rbp
  401d99:	eb 51                	jmp    401dec <urlencode+0xb3>
  401d9b:	80 fa 20             	cmp    $0x20,%dl
  401d9e:	75 0a                	jne    401daa <urlencode+0x71>
  401da0:	c6 45 00 2b          	movb   $0x2b,0x0(%rbp)
  401da4:	48 8d 6d 01          	lea    0x1(%rbp),%rbp
  401da8:	eb 42                	jmp    401dec <urlencode+0xb3>
  401daa:	8d 42 e0             	lea    -0x20(%rdx),%eax
  401dad:	3c 5f                	cmp    $0x5f,%al
  401daf:	0f 96 c1             	setbe  %cl
  401db2:	80 fa 09             	cmp    $0x9,%dl
  401db5:	0f 94 c0             	sete   %al
  401db8:	08 c1                	or     %al,%cl
  401dba:	74 45                	je     401e01 <urlencode+0xc8>
  401dbc:	0f b6 d2             	movzbl %dl,%edx
  401dbf:	be e8 32 40 00       	mov    $0x4032e8,%esi
  401dc4:	48 89 e7             	mov    %rsp,%rdi
  401dc7:	b8 00 00 00 00       	mov    $0x0,%eax
  401dcc:	e8 1f f0 ff ff       	callq  400df0 <sprintf@plt>
  401dd1:	0f b6 04 24          	movzbl (%rsp),%eax
  401dd5:	88 45 00             	mov    %al,0x0(%rbp)
  401dd8:	0f b6 44 24 01       	movzbl 0x1(%rsp),%eax
  401ddd:	88 45 01             	mov    %al,0x1(%rbp)
  401de0:	0f b6 44 24 02       	movzbl 0x2(%rsp),%eax
  401de5:	88 45 02             	mov    %al,0x2(%rbp)
  401de8:	48 8d 6d 03          	lea    0x3(%rbp),%rbp
  401dec:	48 83 c3 01          	add    $0x1,%rbx
  401df0:	44 89 e0             	mov    %r12d,%eax
  401df3:	44 8d 60 ff          	lea    -0x1(%rax),%r12d
  401df7:	85 c0                	test   %eax,%eax
  401df9:	0f 85 61 ff ff ff    	jne    401d60 <urlencode+0x27>
  401dff:	eb 05                	jmp    401e06 <urlencode+0xcd>
  401e01:	b8 ff ff ff ff       	mov    $0xffffffff,%eax
  401e06:	48 83 c4 10          	add    $0x10,%rsp
  401e0a:	5b                   	pop    %rbx
  401e0b:	5d                   	pop    %rbp
  401e0c:	41 5c                	pop    %r12
  401e0e:	c3                   	retq

0000000000401e0f <rio_writen>:
  401e0f:	41 55                	push   %r13
  401e11:	41 54                	push   %r12
  401e13:	55                   	push   %rbp
  401e14:	53                   	push   %rbx
  401e15:	48 83 ec 08          	sub    $0x8,%rsp
  401e19:	41 89 fc             	mov    %edi,%r12d
  401e1c:	48 89 f5             	mov    %rsi,%rbp
  401e1f:	49 89 d5             	mov    %rdx,%r13
  401e22:	48 89 d3             	mov    %rdx,%rbx
  401e25:	eb 28                	jmp    401e4f <rio_writen+0x40>
  401e27:	48 89 da             	mov    %rbx,%rdx
  401e2a:	48 89 ee             	mov    %rbp,%rsi
  401e2d:	44 89 e7             	mov    %r12d,%edi
  401e30:	e8 8b f0 ff ff       	callq  400ec0 <write@plt>
  401e35:	48 85 c0             	test   %rax,%rax
  401e38:	7f 0f                	jg     401e49 <rio_writen+0x3a>
  401e3a:	e8 41 f0 ff ff       	callq  400e80 <__errno_location@plt>
  401e3f:	83 38 04             	cmpl   $0x4,(%rax)
  401e42:	75 15                	jne    401e59 <rio_writen+0x4a>
  401e44:	b8 00 00 00 00       	mov    $0x0,%eax
  401e49:	48 29 c3             	sub    %rax,%rbx
  401e4c:	48 01 c5             	add    %rax,%rbp
  401e4f:	48 85 db             	test   %rbx,%rbx
  401e52:	75 d3                	jne    401e27 <rio_writen+0x18>
  401e54:	4c 89 e8             	mov    %r13,%rax
  401e57:	eb 07                	jmp    401e60 <rio_writen+0x51>
  401e59:	48 c7 c0 ff ff ff ff 	mov    $0xffffffffffffffff,%rax
  401e60:	48 83 c4 08          	add    $0x8,%rsp
  401e64:	5b                   	pop    %rbx
  401e65:	5d                   	pop    %rbp
  401e66:	41 5c                	pop    %r12
  401e68:	41 5d                	pop    %r13
  401e6a:	c3                   	retq

0000000000401e6b <rio_read>:
  401e6b:	41 56                	push   %r14
  401e6d:	41 55                	push   %r13
  401e6f:	41 54                	push   %r12
  401e71:	55                   	push   %rbp
  401e72:	53                   	push   %rbx
  401e73:	48 89 fb             	mov    %rdi,%rbx
  401e76:	49 89 f6             	mov    %rsi,%r14
  401e79:	49 89 d5             	mov    %rdx,%r13
  401e7c:	4c 8d 67 10          	lea    0x10(%rdi),%r12
  401e80:	eb 2a                	jmp    401eac <rio_read+0x41>
  401e82:	ba 00 20 00 00       	mov    $0x2000,%edx
  401e87:	4c 89 e6             	mov    %r12,%rsi
  401e8a:	8b 3b                	mov    (%rbx),%edi
  401e8c:	e8 df ee ff ff       	callq  400d70 <read@plt>
  401e91:	89 43 04             	mov    %eax,0x4(%rbx)
  401e94:	85 c0                	test   %eax,%eax
  401e96:	79 0c                	jns    401ea4 <rio_read+0x39>
  401e98:	e8 e3 ef ff ff       	callq  400e80 <__errno_location@plt>
  401e9d:	83 38 04             	cmpl   $0x4,(%rax)
  401ea0:	74 0a                	je     401eac <rio_read+0x41>
  401ea2:	eb 37                	jmp    401edb <rio_read+0x70>
  401ea4:	85 c0                	test   %eax,%eax
  401ea6:	74 3c                	je     401ee4 <rio_read+0x79>
  401ea8:	4c 89 63 08          	mov    %r12,0x8(%rbx)
  401eac:	8b 6b 04             	mov    0x4(%rbx),%ebp
  401eaf:	85 ed                	test   %ebp,%ebp
  401eb1:	7e cf                	jle    401e82 <rio_read+0x17>
  401eb3:	89 e8                	mov    %ebp,%eax
  401eb5:	4c 39 e8             	cmp    %r13,%rax
  401eb8:	72 03                	jb     401ebd <rio_read+0x52>
  401eba:	44 89 ed             	mov    %r13d,%ebp
  401ebd:	4c 63 e5             	movslq %ebp,%r12
  401ec0:	48 8b 73 08          	mov    0x8(%rbx),%rsi
  401ec4:	4c 89 e2             	mov    %r12,%rdx
  401ec7:	4c 89 f7             	mov    %r14,%rdi
  401eca:	e8 01 f0 ff ff       	callq  400ed0 <memcpy@plt>
  401ecf:	4c 01 63 08          	add    %r12,0x8(%rbx)
  401ed3:	29 6b 04             	sub    %ebp,0x4(%rbx)
  401ed6:	4c 89 e0             	mov    %r12,%rax
  401ed9:	eb 0e                	jmp    401ee9 <rio_read+0x7e>
  401edb:	48 c7 c0 ff ff ff ff 	mov    $0xffffffffffffffff,%rax
  401ee2:	eb 05                	jmp    401ee9 <rio_read+0x7e>
  401ee4:	b8 00 00 00 00       	mov    $0x0,%eax
  401ee9:	5b                   	pop    %rbx
  401eea:	5d                   	pop    %rbp
  401eeb:	41 5c                	pop    %r12
  401eed:	41 5d                	pop    %r13
  401eef:	41 5e                	pop    %r14
  401ef1:	c3                   	retq

0000000000401ef2 <rio_readlineb>:
  401ef2:	41 55                	push   %r13
  401ef4:	41 54                	push   %r12
  401ef6:	55                   	push   %rbp
  401ef7:	53                   	push   %rbx
  401ef8:	48 83 ec 18          	sub    $0x18,%rsp
  401efc:	49 89 fd             	mov    %rdi,%r13
  401eff:	48 89 f5             	mov    %rsi,%rbp
  401f02:	49 89 d4             	mov    %rdx,%r12
  401f05:	bb 01 00 00 00       	mov    $0x1,%ebx
  401f0a:	eb 3f                	jmp    401f4b <rio_readlineb+0x59>
  401f0c:	ba 01 00 00 00       	mov    $0x1,%edx
  401f11:	48 8d 74 24 0f       	lea    0xf(%rsp),%rsi
  401f16:	4c 89 ef             	mov    %r13,%rdi
  401f19:	e8 4d ff ff ff       	callq  401e6b <rio_read>
  401f1e:	83 f8 01             	cmp    $0x1,%eax
  401f21:	75 12                	jne    401f35 <rio_readlineb+0x43>
  401f23:	48 8d 55 01          	lea    0x1(%rbp),%rdx
  401f27:	0f b6 44 24 0f       	movzbl 0xf(%rsp),%eax
  401f2c:	88 45 00             	mov    %al,0x0(%rbp)
  401f2f:	3c 0a                	cmp    $0xa,%al
  401f31:	75 11                	jne    401f44 <rio_readlineb+0x52>
  401f33:	eb 1d                	jmp    401f52 <rio_readlineb+0x60>
  401f35:	85 c0                	test   %eax,%eax
  401f37:	75 25                	jne    401f5e <rio_readlineb+0x6c>
  401f39:	48 83 fb 01          	cmp    $0x1,%rbx
  401f3d:	0f 1f 00             	nopl   (%rax)
  401f40:	75 13                	jne    401f55 <rio_readlineb+0x63>
  401f42:	eb 23                	jmp    401f67 <rio_readlineb+0x75>
  401f44:	48 83 c3 01          	add    $0x1,%rbx
  401f48:	48 89 d5             	mov    %rdx,%rbp
  401f4b:	4c 39 e3             	cmp    %r12,%rbx
  401f4e:	72 bc                	jb     401f0c <rio_readlineb+0x1a>
  401f50:	eb 03                	jmp    401f55 <rio_readlineb+0x63>
  401f52:	48 89 d5             	mov    %rdx,%rbp
  401f55:	c6 45 00 00          	movb   $0x0,0x0(%rbp)
  401f59:	48 89 d8             	mov    %rbx,%rax
  401f5c:	eb 0e                	jmp    401f6c <rio_readlineb+0x7a>
  401f5e:	48 c7 c0 ff ff ff ff 	mov    $0xffffffffffffffff,%rax
  401f65:	eb 05                	jmp    401f6c <rio_readlineb+0x7a>
  401f67:	b8 00 00 00 00       	mov    $0x0,%eax
  401f6c:	48 83 c4 18          	add    $0x18,%rsp
  401f70:	5b                   	pop    %rbx
  401f71:	5d                   	pop    %rbp
  401f72:	41 5c                	pop    %r12
  401f74:	41 5d                	pop    %r13
  401f76:	c3                   	retq

0000000000401f77 <submitr>:
  401f77:	41 57                	push   %r15
  401f79:	41 56                	push   %r14
  401f7b:	41 55                	push   %r13
  401f7d:	41 54                	push   %r12
  401f7f:	55                   	push   %rbp
  401f80:	53                   	push   %rbx
  401f81:	48 81 ec 58 a0 00 00 	sub    $0xa058,%rsp
  401f88:	49 89 fc             	mov    %rdi,%r12
  401f8b:	89 74 24 1c          	mov    %esi,0x1c(%rsp)
  401f8f:	48 89 54 24 10       	mov    %rdx,0x10(%rsp)
  401f94:	49 89 cf             	mov    %rcx,%r15
  401f97:	4d 89 c6             	mov    %r8,%r14
  401f9a:	4d 89 cd             	mov    %r9,%r13
  401f9d:	48 8b 9c 24 90 a0 00 	mov    0xa090(%rsp),%rbx
  401fa4:	00
  401fa5:	c7 84 24 2c 20 00 00 	movl   $0x0,0x202c(%rsp)
  401fac:	00 00 00 00
  401fb0:	ba 00 00 00 00       	mov    $0x0,%edx
  401fb5:	be 01 00 00 00       	mov    $0x1,%esi
  401fba:	bf 02 00 00 00       	mov    $0x2,%edi
  401fbf:	e8 8c ee ff ff       	callq  400e50 <socket@plt>
  401fc4:	89 c5                	mov    %eax,%ebp
  401fc6:	85 c0                	test   %eax,%eax
  401fc8:	79 4e                	jns    402018 <submitr+0xa1>
  401fca:	48 b8 45 72 72 6f 72 	movabs $0x43203a726f727245,%rax
  401fd1:	3a 20 43
  401fd4:	48 89 03             	mov    %rax,(%rbx)
  401fd7:	48 b8 6c 69 65 6e 74 	movabs $0x6e7520746e65696c,%rax
  401fde:	20 75 6e
  401fe1:	48 89 43 08          	mov    %rax,0x8(%rbx)
  401fe5:	48 b8 61 62 6c 65 20 	movabs $0x206f7420656c6261,%rax
  401fec:	74 6f 20
  401fef:	48 89 43 10          	mov    %rax,0x10(%rbx)
  401ff3:	48 b8 63 72 65 61 74 	movabs $0x7320657461657263,%rax
  401ffa:	65 20 73
  401ffd:	48 89 43 18          	mov    %rax,0x18(%rbx)
  402001:	c7 43 20 6f 63 6b 65 	movl   $0x656b636f,0x20(%rbx)
  402008:	66 c7 43 24 74 00    	movw   $0x74,0x24(%rbx)
  40200e:	b8 ff ff ff ff       	mov    $0xffffffff,%eax
  402013:	e9 83 06 00 00       	jmpq   40269b <submitr+0x724>
  402018:	4c 89 e7             	mov    %r12,%rdi
  40201b:	e8 f0 ec ff ff       	callq  400d10 <gethostbyname@plt>
  402020:	48 85 c0             	test   %rax,%rax
  402023:	75 75                	jne    40209a <submitr+0x123>
  402025:	48 b8 45 72 72 6f 72 	movabs $0x44203a726f727245,%rax
  40202c:	3a 20 44
  40202f:	48 89 03             	mov    %rax,(%rbx)
  402032:	48 b8 4e 53 20 69 73 	movabs $0x6e7520736920534e,%rax
  402039:	20 75 6e
  40203c:	48 89 43 08          	mov    %rax,0x8(%rbx)
  402040:	48 b8 61 62 6c 65 20 	movabs $0x206f7420656c6261,%rax
  402047:	74 6f 20
  40204a:	48 89 43 10          	mov    %rax,0x10(%rbx)
  40204e:	48 b8 72 65 73 6f 6c 	movabs $0x2065766c6f736572,%rax
  402055:	76 65 20
  402058:	48 89 43 18          	mov    %rax,0x18(%rbx)
  40205c:	48 b8 41 75 74 6f 6c 	movabs $0x2062616c6f747541,%rax
  402063:	61 62 20
  402066:	48 89 43 20          	mov    %rax,0x20(%rbx)
  40206a:	48 b8 73 65 72 76 65 	movabs $0x6120726576726573,%rax
  402071:	72 20 61
  402074:	48 89 43 28          	mov    %rax,0x28(%rbx)
  402078:	c7 43 30 64 64 72 65 	movl   $0x65726464,0x30(%rbx)
  40207f:	66 c7 43 34 73 73    	movw   $0x7373,0x34(%rbx)
  402085:	c6 43 36 00          	movb   $0x0,0x36(%rbx)
  402089:	89 ef                	mov    %ebp,%edi
  40208b:	e8 70 ec ff ff       	callq  400d00 <close@plt>
  402090:	b8 ff ff ff ff       	mov    $0xffffffff,%eax
  402095:	e9 01 06 00 00       	jmpq   40269b <submitr+0x724>
  40209a:	48 c7 84 24 40 a0 00 	movq   $0x0,0xa040(%rsp)
  4020a1:	00 00 00 00 00
  4020a6:	48 c7 84 24 48 a0 00 	movq   $0x0,0xa048(%rsp)
  4020ad:	00 00 00 00 00
  4020b2:	66 c7 84 24 40 a0 00 	movw   $0x2,0xa040(%rsp)
  4020b9:	00 02 00
  4020bc:	48 8b 48 18          	mov    0x18(%rax),%rcx
  4020c0:	48 63 50 14          	movslq 0x14(%rax),%rdx
  4020c4:	48 8d b4 24 44 a0 00 	lea    0xa044(%rsp),%rsi
  4020cb:	00
  4020cc:	48 8b 39             	mov    (%rcx),%rdi
  4020cf:	e8 ec ec ff ff       	callq  400dc0 <bcopy@plt>
  4020d4:	0f b7 44 24 1c       	movzwl 0x1c(%rsp),%eax
  4020d9:	66 c1 c8 08          	ror    $0x8,%ax
  4020dd:	66 89 84 24 42 a0 00 	mov    %ax,0xa042(%rsp)
  4020e4:	00
  4020e5:	ba 10 00 00 00       	mov    $0x10,%edx
  4020ea:	48 8d b4 24 40 a0 00 	lea    0xa040(%rsp),%rsi
  4020f1:	00
  4020f2:	89 ef                	mov    %ebp,%edi
  4020f4:	e8 17 ed ff ff       	callq  400e10 <connect@plt>
  4020f9:	85 c0                	test   %eax,%eax
  4020fb:	79 67                	jns    402164 <submitr+0x1ed>
  4020fd:	48 b8 45 72 72 6f 72 	movabs $0x55203a726f727245,%rax
  402104:	3a 20 55
  402107:	48 89 03             	mov    %rax,(%rbx)
  40210a:	48 b8 6e 61 62 6c 65 	movabs $0x6f7420656c62616e,%rax
  402111:	20 74 6f
  402114:	48 89 43 08          	mov    %rax,0x8(%rbx)
  402118:	48 b8 20 63 6f 6e 6e 	movabs $0x7463656e6e6f6320,%rax
  40211f:	65 63 74
  402122:	48 89 43 10          	mov    %rax,0x10(%rbx)
  402126:	48 b8 20 74 6f 20 74 	movabs $0x20656874206f7420,%rax
  40212d:	68 65 20
  402130:	48 89 43 18          	mov    %rax,0x18(%rbx)
  402134:	48 b8 41 75 74 6f 6c 	movabs $0x2062616c6f747541,%rax
  40213b:	61 62 20
  40213e:	48 89 43 20          	mov    %rax,0x20(%rbx)
  402142:	c7 43 28 73 65 72 76 	movl   $0x76726573,0x28(%rbx)
  402149:	66 c7 43 2c 65 72    	movw   $0x7265,0x2c(%rbx)
  40214f:	c6 43 2e 00          	movb   $0x0,0x2e(%rbx)
  402153:	89 ef                	mov    %ebp,%edi
  402155:	e8 a6 eb ff ff       	callq  400d00 <close@plt>
  40215a:	b8 ff ff ff ff       	mov    $0xffffffff,%eax
  40215f:	e9 37 05 00 00       	jmpq   40269b <submitr+0x724>
  402164:	48 c7 c2 ff ff ff ff 	mov    $0xffffffffffffffff,%rdx
  40216b:	4c 89 ef             	mov    %r13,%rdi
  40216e:	b8 00 00 00 00       	mov    $0x0,%eax
  402173:	48 89 d1             	mov    %rdx,%rcx
  402176:	f2 ae                	repnz scas %es:(%rdi),%al
  402178:	48 f7 d1             	not    %rcx
  40217b:	48 89 ce             	mov    %rcx,%rsi
  40217e:	48 8b 7c 24 10       	mov    0x10(%rsp),%rdi
  402183:	48 89 d1             	mov    %rdx,%rcx
  402186:	f2 ae                	repnz scas %es:(%rdi),%al
  402188:	48 f7 d1             	not    %rcx
  40218b:	49 89 c8             	mov    %rcx,%r8
  40218e:	4c 89 ff             	mov    %r15,%rdi
  402191:	48 89 d1             	mov    %rdx,%rcx
  402194:	f2 ae                	repnz scas %es:(%rdi),%al
  402196:	49 29 c8             	sub    %rcx,%r8
  402199:	4c 89 f7             	mov    %r14,%rdi
  40219c:	48 89 d1             	mov    %rdx,%rcx
  40219f:	f2 ae                	repnz scas %es:(%rdi),%al
  4021a1:	49 29 c8             	sub    %rcx,%r8
  4021a4:	48 8d 44 76 fd       	lea    -0x3(%rsi,%rsi,2),%rax
  4021a9:	49 8d 44 00 7b       	lea    0x7b(%r8,%rax,1),%rax
  4021ae:	48 3d 00 20 00 00    	cmp    $0x2000,%rax
  4021b4:	76 72                	jbe    402228 <submitr+0x2b1>
  4021b6:	48 b8 45 72 72 6f 72 	movabs $0x52203a726f727245,%rax
  4021bd:	3a 20 52
  4021c0:	48 89 03             	mov    %rax,(%rbx)
  4021c3:	48 b8 65 73 75 6c 74 	movabs $0x747320746c757365,%rax
  4021ca:	20 73 74
  4021cd:	48 89 43 08          	mov    %rax,0x8(%rbx)
  4021d1:	48 b8 72 69 6e 67 20 	movabs $0x6f6f7420676e6972,%rax
  4021d8:	74 6f 6f
  4021db:	48 89 43 10          	mov    %rax,0x10(%rbx)
  4021df:	48 b8 20 6c 61 72 67 	movabs $0x202e656772616c20,%rax
  4021e6:	65 2e 20
  4021e9:	48 89 43 18          	mov    %rax,0x18(%rbx)
  4021ed:	48 b8 49 6e 63 72 65 	movabs $0x6573616572636e49,%rax
  4021f4:	61 73 65
  4021f7:	48 89 43 20          	mov    %rax,0x20(%rbx)
  4021fb:	48 b8 20 53 55 42 4d 	movabs $0x5254494d42555320,%rax
  402202:	49 54 52
  402205:	48 89 43 28          	mov    %rax,0x28(%rbx)
  402209:	48 b8 5f 4d 41 58 42 	movabs $0x46554258414d5f,%rax
  402210:	55 46 00
  402213:	48 89 43 30          	mov    %rax,0x30(%rbx)
  402217:	89 ef                	mov    %ebp,%edi
  402219:	e8 e2 ea ff ff       	callq  400d00 <close@plt>
  40221e:	b8 ff ff ff ff       	mov    $0xffffffff,%eax
  402223:	e9 73 04 00 00       	jmpq   40269b <submitr+0x724>
  402228:	48 8d b4 24 30 40 00 	lea    0x4030(%rsp),%rsi
  40222f:	00
  402230:	b9 00 04 00 00       	mov    $0x400,%ecx
  402235:	b8 00 00 00 00       	mov    $0x0,%eax
  40223a:	48 89 f7             	mov    %rsi,%rdi
  40223d:	f3 48 ab             	rep stos %rax,%es:(%rdi)
  402240:	4c 89 ef             	mov    %r13,%rdi
  402243:	e8 f1 fa ff ff       	callq  401d39 <urlencode>
  402248:	85 c0                	test   %eax,%eax
  40224a:	0f 89 8a 00 00 00    	jns    4022da <submitr+0x363>
  402250:	48 b8 45 72 72 6f 72 	movabs $0x52203a726f727245,%rax
  402257:	3a 20 52
  40225a:	48 89 03             	mov    %rax,(%rbx)
  40225d:	48 b8 65 73 75 6c 74 	movabs $0x747320746c757365,%rax
  402264:	20 73 74
  402267:	48 89 43 08          	mov    %rax,0x8(%rbx)
  40226b:	48 b8 72 69 6e 67 20 	movabs $0x6e6f6320676e6972,%rax
  402272:	63 6f 6e
  402275:	48 89 43 10          	mov    %rax,0x10(%rbx)
  402279:	48 b8 74 61 69 6e 73 	movabs $0x6e6120736e696174,%rax
  402280:	20 61 6e
  402283:	48 89 43 18          	mov    %rax,0x18(%rbx)
  402287:	48 b8 20 69 6c 6c 65 	movabs $0x6c6167656c6c6920,%rax
  40228e:	67 61 6c
  402291:	48 89 43 20          	mov    %rax,0x20(%rbx)
  402295:	48 b8 20 6f 72 20 75 	movabs $0x72706e7520726f20,%rax
  40229c:	6e 70 72
  40229f:	48 89 43 28          	mov    %rax,0x28(%rbx)
  4022a3:	48 b8 69 6e 74 61 62 	movabs $0x20656c6261746e69,%rax
  4022aa:	6c 65 20
  4022ad:	48 89 43 30          	mov    %rax,0x30(%rbx)
  4022b1:	48 b8 63 68 61 72 61 	movabs $0x6574636172616863,%rax
  4022b8:	63 74 65
  4022bb:	48 89 43 38          	mov    %rax,0x38(%rbx)
  4022bf:	66 c7 43 40 72 2e    	movw   $0x2e72,0x40(%rbx)
  4022c5:	c6 43 42 00          	movb   $0x0,0x42(%rbx)
  4022c9:	89 ef                	mov    %ebp,%edi
  4022cb:	e8 30 ea ff ff       	callq  400d00 <close@plt>
  4022d0:	b8 ff ff ff ff       	mov    $0xffffffff,%eax
  4022d5:	e9 c1 03 00 00       	jmpq   40269b <submitr+0x724>
  4022da:	4c 89 24 24          	mov    %r12,(%rsp)
  4022de:	4c 8d 8c 24 30 40 00 	lea    0x4030(%rsp),%r9
  4022e5:	00
  4022e6:	4d 89 f8             	mov    %r15,%r8
  4022e9:	4c 89 f1             	mov    %r14,%rcx
  4022ec:	48 8b 54 24 10       	mov    0x10(%rsp),%rdx
  4022f1:	be 38 33 40 00       	mov    $0x403338,%esi
  4022f6:	48 8d bc 24 30 60 00 	lea    0x6030(%rsp),%rdi
  4022fd:	00
  4022fe:	b8 00 00 00 00       	mov    $0x0,%eax
  402303:	e8 e8 ea ff ff       	callq  400df0 <sprintf@plt>
  402308:	48 8d bc 24 30 60 00 	lea    0x6030(%rsp),%rdi
  40230f:	00
  402310:	b8 00 00 00 00       	mov    $0x0,%eax
  402315:	48 c7 c1 ff ff ff ff 	mov    $0xffffffffffffffff,%rcx
  40231c:	f2 ae                	repnz scas %es:(%rdi),%al
  40231e:	48 f7 d1             	not    %rcx
  402321:	48 8d 51 ff          	lea    -0x1(%rcx),%rdx
  402325:	48 8d b4 24 30 60 00 	lea    0x6030(%rsp),%rsi
  40232c:	00
  40232d:	89 ef                	mov    %ebp,%edi
  40232f:	e8 db fa ff ff       	callq  401e0f <rio_writen>
  402334:	48 85 c0             	test   %rax,%rax
  402337:	79 6b                	jns    4023a4 <submitr+0x42d>
  402339:	48 b8 45 72 72 6f 72 	movabs $0x43203a726f727245,%rax
  402340:	3a 20 43
  402343:	48 89 03             	mov    %rax,(%rbx)
  402346:	48 b8 6c 69 65 6e 74 	movabs $0x6e7520746e65696c,%rax
  40234d:	20 75 6e
  402350:	48 89 43 08          	mov    %rax,0x8(%rbx)
  402354:	48 b8 61 62 6c 65 20 	movabs $0x206f7420656c6261,%rax
  40235b:	74 6f 20
  40235e:	48 89 43 10          	mov    %rax,0x10(%rbx)
  402362:	48 b8 77 72 69 74 65 	movabs $0x6f74206574697277,%rax
  402369:	20 74 6f
  40236c:	48 89 43 18          	mov    %rax,0x18(%rbx)
  402370:	48 b8 20 74 68 65 20 	movabs $0x7475412065687420,%rax
  402377:	41 75 74
  40237a:	48 89 43 20          	mov    %rax,0x20(%rbx)
  40237e:	48 b8 6f 6c 61 62 20 	movabs $0x7265732062616c6f,%rax
  402385:	73 65 72
  402388:	48 89 43 28          	mov    %rax,0x28(%rbx)
  40238c:	c7 43 30 76 65 72 00 	movl   $0x726576,0x30(%rbx)
  402393:	89 ef                	mov    %ebp,%edi
  402395:	e8 66 e9 ff ff       	callq  400d00 <close@plt>
  40239a:	b8 ff ff ff ff       	mov    $0xffffffff,%eax
  40239f:	e9 f7 02 00 00       	jmpq   40269b <submitr+0x724>
  4023a4:	89 ee                	mov    %ebp,%esi
  4023a6:	48 8d bc 24 30 80 00 	lea    0x8030(%rsp),%rdi
  4023ad:	00
  4023ae:	e8 3d f9 ff ff       	callq  401cf0 <rio_readinitb>
  4023b3:	ba 00 20 00 00       	mov    $0x2000,%edx
  4023b8:	48 8d b4 24 30 60 00 	lea    0x6030(%rsp),%rsi
  4023bf:	00
  4023c0:	48 8d bc 24 30 80 00 	lea    0x8030(%rsp),%rdi
  4023c7:	00
  4023c8:	e8 25 fb ff ff       	callq  401ef2 <rio_readlineb>
  4023cd:	48 85 c0             	test   %rax,%rax
  4023d0:	7f 7f                	jg     402451 <submitr+0x4da>
  4023d2:	48 b8 45 72 72 6f 72 	movabs $0x43203a726f727245,%rax
  4023d9:	3a 20 43
  4023dc:	48 89 03             	mov    %rax,(%rbx)
  4023df:	48 b8 6c 69 65 6e 74 	movabs $0x6e7520746e65696c,%rax
  4023e6:	20 75 6e
  4023e9:	48 89 43 08          	mov    %rax,0x8(%rbx)
  4023ed:	48 b8 61 62 6c 65 20 	movabs $0x206f7420656c6261,%rax
  4023f4:	74 6f 20
  4023f7:	48 89 43 10          	mov    %rax,0x10(%rbx)
  4023fb:	48 b8 72 65 61 64 20 	movabs $0x7269662064616572,%rax
  402402:	66 69 72
  402405:	48 89 43 18          	mov    %rax,0x18(%rbx)
  402409:	48 b8 73 74 20 68 65 	movabs $0x6564616568207473,%rax
  402410:	61 64 65
  402413:	48 89 43 20          	mov    %rax,0x20(%rbx)
  402417:	48 b8 72 20 66 72 6f 	movabs $0x41206d6f72662072,%rax
  40241e:	6d 20 41
  402421:	48 89 43 28          	mov    %rax,0x28(%rbx)
  402425:	48 b8 75 74 6f 6c 61 	movabs $0x732062616c6f7475,%rax
  40242c:	62 20 73
  40242f:	48 89 43 30          	mov    %rax,0x30(%rbx)
  402433:	c7 43 38 65 72 76 65 	movl   $0x65767265,0x38(%rbx)
  40243a:	66 c7 43 3c 72 00    	movw   $0x72,0x3c(%rbx)
  402440:	89 ef                	mov    %ebp,%edi
  402442:	e8 b9 e8 ff ff       	callq  400d00 <close@plt>
  402447:	b8 ff ff ff ff       	mov    $0xffffffff,%eax
  40244c:	e9 4a 02 00 00       	jmpq   40269b <submitr+0x724>
  402451:	4c 8d 44 24 20       	lea    0x20(%rsp),%r8
  402456:	48 8d 8c 24 2c 20 00 	lea    0x202c(%rsp),%rcx
  40245d:	00
  40245e:	48 8d 94 24 30 20 00 	lea    0x2030(%rsp),%rdx
  402465:	00
  402466:	be ef 32 40 00       	mov    $0x4032ef,%esi
  40246b:	48 8d bc 24 30 60 00 	lea    0x6030(%rsp),%rdi
  402472:	00
  402473:	b8 00 00 00 00       	mov    $0x0,%eax
  402478:	e8 c3 e8 ff ff       	callq  400d40 <__isoc99_sscanf@plt>
  40247d:	e9 95 00 00 00       	jmpq   402517 <submitr+0x5a0>
  402482:	ba 00 20 00 00       	mov    $0x2000,%edx
  402487:	48 8d b4 24 30 60 00 	lea    0x6030(%rsp),%rsi
  40248e:	00
  40248f:	48 8d bc 24 30 80 00 	lea    0x8030(%rsp),%rdi
  402496:	00
  402497:	e8 56 fa ff ff       	callq  401ef2 <rio_readlineb>
  40249c:	48 85 c0             	test   %rax,%rax
  40249f:	7f 76                	jg     402517 <submitr+0x5a0>
  4024a1:	48 b8 45 72 72 6f 72 	movabs $0x43203a726f727245,%rax
  4024a8:	3a 20 43
  4024ab:	48 89 03             	mov    %rax,(%rbx)
  4024ae:	48 b8 6c 69 65 6e 74 	movabs $0x6e7520746e65696c,%rax
  4024b5:	20 75 6e
  4024b8:	48 89 43 08          	mov    %rax,0x8(%rbx)
  4024bc:	48 b8 61 62 6c 65 20 	movabs $0x206f7420656c6261,%rax
  4024c3:	74 6f 20
  4024c6:	48 89 43 10          	mov    %rax,0x10(%rbx)
  4024ca:	48 b8 72 65 61 64 20 	movabs $0x6165682064616572,%rax
  4024d1:	68 65 61
  4024d4:	48 89 43 18          	mov    %rax,0x18(%rbx)
  4024d8:	48 b8 64 65 72 73 20 	movabs $0x6f72662073726564,%rax
  4024df:	66 72 6f
  4024e2:	48 89 43 20          	mov    %rax,0x20(%rbx)
  4024e6:	48 b8 6d 20 41 75 74 	movabs $0x616c6f747541206d,%rax
  4024ed:	6f 6c 61
  4024f0:	48 89 43 28          	mov    %rax,0x28(%rbx)
  4024f4:	48 b8 62 20 73 65 72 	movabs $0x7265767265732062,%rax
  4024fb:	76 65 72
  4024fe:	48 89 43 30          	mov    %rax,0x30(%rbx)
  402502:	c6 43 38 00          	movb   $0x0,0x38(%rbx)
  402506:	89 ef                	mov    %ebp,%edi
  402508:	e8 f3 e7 ff ff       	callq  400d00 <close@plt>
  40250d:	b8 ff ff ff ff       	mov    $0xffffffff,%eax
  402512:	e9 84 01 00 00       	jmpq   40269b <submitr+0x724>
  402517:	0f b6 84 24 30 60 00 	movzbl 0x6030(%rsp),%eax
  40251e:	00
  40251f:	83 e8 0d             	sub    $0xd,%eax
  402522:	75 15                	jne    402539 <submitr+0x5c2>
  402524:	0f b6 84 24 31 60 00 	movzbl 0x6031(%rsp),%eax
  40252b:	00
  40252c:	83 e8 0a             	sub    $0xa,%eax
  40252f:	75 08                	jne    402539 <submitr+0x5c2>
  402531:	0f b6 84 24 32 60 00 	movzbl 0x6032(%rsp),%eax
  402538:	00
  402539:	85 c0                	test   %eax,%eax
  40253b:	0f 85 41 ff ff ff    	jne    402482 <submitr+0x50b>
  402541:	ba 00 20 00 00       	mov    $0x2000,%edx
  402546:	48 8d b4 24 30 60 00 	lea    0x6030(%rsp),%rsi
  40254d:	00
  40254e:	48 8d bc 24 30 80 00 	lea    0x8030(%rsp),%rdi
  402555:	00
  402556:	e8 97 f9 ff ff       	callq  401ef2 <rio_readlineb>
  40255b:	48 85 c0             	test   %rax,%rax
  40255e:	0f 8f 80 00 00 00    	jg     4025e4 <submitr+0x66d>
  402564:	48 b8 45 72 72 6f 72 	movabs $0x43203a726f727245,%rax
  40256b:	3a 20 43
  40256e:	48 89 03             	mov    %rax,(%rbx)
  402571:	48 b8 6c 69 65 6e 74 	movabs $0x6e7520746e65696c,%rax
  402578:	20 75 6e
  40257b:	48 89 43 08          	mov    %rax,0x8(%rbx)
  40257f:	48 b8 61 62 6c 65 20 	movabs $0x206f7420656c6261,%rax
  402586:	74 6f 20
  402589:	48 89 43 10          	mov    %rax,0x10(%rbx)
  40258d:	48 b8 72 65 61 64 20 	movabs $0x6174732064616572,%rax
  402594:	73 74 61
  402597:	48 89 43 18          	mov    %rax,0x18(%rbx)
  40259b:	48 b8 74 75 73 20 6d 	movabs $0x7373656d20737574,%rax
  4025a2:	65 73 73
  4025a5:	48 89 43 20          	mov    %rax,0x20(%rbx)
  4025a9:	48 b8 61 67 65 20 66 	movabs $0x6d6f726620656761,%rax
  4025b0:	72 6f 6d
  4025b3:	48 89 43 28          	mov    %rax,0x28(%rbx)
  4025b7:	48 b8 20 41 75 74 6f 	movabs $0x62616c6f74754120,%rax
  4025be:	6c 61 62
  4025c1:	48 89 43 30          	mov    %rax,0x30(%rbx)
  4025c5:	48 b8 20 73 65 72 76 	movabs $0x72657672657320,%rax
  4025cc:	65 72 00
  4025cf:	48 89 43 38          	mov    %rax,0x38(%rbx)
  4025d3:	89 ef                	mov    %ebp,%edi
  4025d5:	e8 26 e7 ff ff       	callq  400d00 <close@plt>
  4025da:	b8 ff ff ff ff       	mov    $0xffffffff,%eax
  4025df:	e9 b7 00 00 00       	jmpq   40269b <submitr+0x724>
  4025e4:	8b 94 24 2c 20 00 00 	mov    0x202c(%rsp),%edx
  4025eb:	81 fa c8 00 00 00    	cmp    $0xc8,%edx
  4025f1:	74 28                	je     40261b <submitr+0x6a4>
  4025f3:	48 8d 4c 24 20       	lea    0x20(%rsp),%rcx
  4025f8:	be 98 33 40 00       	mov    $0x403398,%esi
  4025fd:	48 89 df             	mov    %rbx,%rdi
  402600:	b8 00 00 00 00       	mov    $0x0,%eax
  402605:	e8 e6 e7 ff ff       	callq  400df0 <sprintf@plt>
  40260a:	89 ef                	mov    %ebp,%edi
  40260c:	e8 ef e6 ff ff       	callq  400d00 <close@plt>
  402611:	b8 ff ff ff ff       	mov    $0xffffffff,%eax
  402616:	e9 80 00 00 00       	jmpq   40269b <submitr+0x724>
  40261b:	48 8d b4 24 30 60 00 	lea    0x6030(%rsp),%rsi
  402622:	00
  402623:	48 89 df             	mov    %rbx,%rdi
  402626:	e8 65 e8 ff ff       	callq  400e90 <strcpy@plt>
  40262b:	89 ef                	mov    %ebp,%edi
  40262d:	e8 ce e6 ff ff       	callq  400d00 <close@plt>
  402632:	0f b6 03             	movzbl (%rbx),%eax
  402635:	83 e8 4f             	sub    $0x4f,%eax
  402638:	75 18                	jne    402652 <submitr+0x6db>
  40263a:	0f b6 53 01          	movzbl 0x1(%rbx),%edx
  40263e:	83 ea 4b             	sub    $0x4b,%edx
  402641:	75 11                	jne    402654 <submitr+0x6dd>
  402643:	0f b6 53 02          	movzbl 0x2(%rbx),%edx
  402647:	83 ea 0a             	sub    $0xa,%edx
  40264a:	75 08                	jne    402654 <submitr+0x6dd>
  40264c:	0f b6 53 03          	movzbl 0x3(%rbx),%edx
  402650:	eb 02                	jmp    402654 <submitr+0x6dd>
  402652:	89 c2                	mov    %eax,%edx
  402654:	85 d2                	test   %edx,%edx
  402656:	74 30                	je     402688 <submitr+0x711>
  402658:	bf 00 33 40 00       	mov    $0x403300,%edi
  40265d:	b9 05 00 00 00       	mov    $0x5,%ecx
  402662:	48 89 de             	mov    %rbx,%rsi
  402665:	f3 a6                	repz cmpsb %es:(%rdi),%ds:(%rsi)
  402667:	0f 97 c1             	seta   %cl
  40266a:	0f 92 c2             	setb   %dl
  40266d:	38 d1                	cmp    %dl,%cl
  40266f:	74 1e                	je     40268f <submitr+0x718>
  402671:	85 c0                	test   %eax,%eax
  402673:	75 0d                	jne    402682 <submitr+0x70b>
  402675:	0f b6 43 01          	movzbl 0x1(%rbx),%eax
  402679:	83 e8 4b             	sub    $0x4b,%eax
  40267c:	75 04                	jne    402682 <submitr+0x70b>
  40267e:	0f b6 43 02          	movzbl 0x2(%rbx),%eax
  402682:	85 c0                	test   %eax,%eax
  402684:	75 10                	jne    402696 <submitr+0x71f>
  402686:	eb 13                	jmp    40269b <submitr+0x724>
  402688:	b8 00 00 00 00       	mov    $0x0,%eax
  40268d:	eb 0c                	jmp    40269b <submitr+0x724>
  40268f:	b8 00 00 00 00       	mov    $0x0,%eax
  402694:	eb 05                	jmp    40269b <submitr+0x724>
  402696:	b8 ff ff ff ff       	mov    $0xffffffff,%eax
  40269b:	48 81 c4 58 a0 00 00 	add    $0xa058,%rsp
  4026a2:	5b                   	pop    %rbx
  4026a3:	5d                   	pop    %rbp
  4026a4:	41 5c                	pop    %r12
  4026a6:	41 5d                	pop    %r13
  4026a8:	41 5e                	pop    %r14
  4026aa:	41 5f                	pop    %r15
  4026ac:	c3                   	retq

00000000004026ad <init_timeout>:
  4026ad:	53                   	push   %rbx
  4026ae:	89 fb                	mov    %edi,%ebx
  4026b0:	85 ff                	test   %edi,%edi
  4026b2:	74 3a                	je     4026ee <init_timeout+0x41>
  4026b4:	85 ff                	test   %edi,%edi
  4026b6:	79 05                	jns    4026bd <init_timeout+0x10>
  4026b8:	bb 00 00 00 00       	mov    $0x0,%ebx
  4026bd:	89 d9                	mov    %ebx,%ecx
  4026bf:	ba c8 33 40 00       	mov    $0x4033c8,%edx
  4026c4:	be 40 00 00 00       	mov    $0x40,%esi
  4026c9:	bf a0 57 60 00       	mov    $0x6057a0,%edi
  4026ce:	b8 00 00 00 00       	mov    $0x0,%eax
  4026d3:	e8 18 e6 ff ff       	callq  400cf0 <snprintf@plt>
  4026d8:	be 02 1d 40 00       	mov    $0x401d02,%esi
  4026dd:	bf 0e 00 00 00       	mov    $0xe,%edi
  4026e2:	e8 59 e7 ff ff       	callq  400e40 <signal@plt>
  4026e7:	89 df                	mov    %ebx,%edi
  4026e9:	e8 82 e7 ff ff       	callq  400e70 <alarm@plt>
  4026ee:	5b                   	pop    %rbx
  4026ef:	c3                   	retq

00000000004026f0 <init_driver>:
  4026f0:	55                   	push   %rbp
  4026f1:	53                   	push   %rbx
  4026f2:	48 83 ec 18          	sub    $0x18,%rsp
  4026f6:	48 89 fd             	mov    %rdi,%rbp
  4026f9:	be 01 00 00 00       	mov    $0x1,%esi
  4026fe:	bf 0d 00 00 00       	mov    $0xd,%edi
  402703:	e8 38 e7 ff ff       	callq  400e40 <signal@plt>
  402708:	be 01 00 00 00       	mov    $0x1,%esi
  40270d:	bf 1d 00 00 00       	mov    $0x1d,%edi
  402712:	e8 29 e7 ff ff       	callq  400e40 <signal@plt>
  402717:	be 01 00 00 00       	mov    $0x1,%esi
  40271c:	bf 1d 00 00 00       	mov    $0x1d,%edi
  402721:	e8 1a e7 ff ff       	callq  400e40 <signal@plt>
  402726:	ba 00 00 00 00       	mov    $0x0,%edx
  40272b:	be 01 00 00 00       	mov    $0x1,%esi
  402730:	bf 02 00 00 00       	mov    $0x2,%edi
  402735:	e8 16 e7 ff ff       	callq  400e50 <socket@plt>
  40273a:	89 c3                	mov    %eax,%ebx
  40273c:	85 c0                	test   %eax,%eax
  40273e:	79 4f                	jns    40278f <init_driver+0x9f>
  402740:	48 b8 45 72 72 6f 72 	movabs $0x43203a726f727245,%rax
  402747:	3a 20 43
  40274a:	48 89 45 00          	mov    %rax,0x0(%rbp)
  40274e:	48 b8 6c 69 65 6e 74 	movabs $0x6e7520746e65696c,%rax
  402755:	20 75 6e
  402758:	48 89 45 08          	mov    %rax,0x8(%rbp)
  40275c:	48 b8 61 62 6c 65 20 	movabs $0x206f7420656c6261,%rax
  402763:	74 6f 20
  402766:	48 89 45 10          	mov    %rax,0x10(%rbp)
  40276a:	48 b8 63 72 65 61 74 	movabs $0x7320657461657263,%rax
  402771:	65 20 73
  402774:	48 89 45 18          	mov    %rax,0x18(%rbp)
  402778:	c7 45 20 6f 63 6b 65 	movl   $0x656b636f,0x20(%rbp)
  40277f:	66 c7 45 24 74 00    	movw   $0x74,0x24(%rbp)
  402785:	b8 ff ff ff ff       	mov    $0xffffffff,%eax
  40278a:	e9 23 01 00 00       	jmpq   4028b2 <init_driver+0x1c2>
  40278f:	bf 05 33 40 00       	mov    $0x403305,%edi
  402794:	e8 77 e5 ff ff       	callq  400d10 <gethostbyname@plt>
  402799:	48 85 c0             	test   %rax,%rax
  40279c:	75 68                	jne    402806 <init_driver+0x116>
  40279e:	48 b8 45 72 72 6f 72 	movabs $0x44203a726f727245,%rax
  4027a5:	3a 20 44
  4027a8:	48 89 45 00          	mov    %rax,0x0(%rbp)
  4027ac:	48 b8 4e 53 20 69 73 	movabs $0x6e7520736920534e,%rax
  4027b3:	20 75 6e
  4027b6:	48 89 45 08          	mov    %rax,0x8(%rbp)
  4027ba:	48 b8 61 62 6c 65 20 	movabs $0x206f7420656c6261,%rax
  4027c1:	74 6f 20
  4027c4:	48 89 45 10          	mov    %rax,0x10(%rbp)
  4027c8:	48 b8 72 65 73 6f 6c 	movabs $0x2065766c6f736572,%rax
  4027cf:	76 65 20
  4027d2:	48 89 45 18          	mov    %rax,0x18(%rbp)
  4027d6:	48 b8 73 65 72 76 65 	movabs $0x6120726576726573,%rax
  4027dd:	72 20 61
  4027e0:	48 89 45 20          	mov    %rax,0x20(%rbp)
  4027e4:	c7 45 28 64 64 72 65 	movl   $0x65726464,0x28(%rbp)
  4027eb:	66 c7 45 2c 73 73    	movw   $0x7373,0x2c(%rbp)
  4027f1:	c6 45 2e 00          	movb   $0x0,0x2e(%rbp)
  4027f5:	89 df                	mov    %ebx,%edi
  4027f7:	e8 04 e5 ff ff       	callq  400d00 <close@plt>
  4027fc:	b8 ff ff ff ff       	mov    $0xffffffff,%eax
  402801:	e9 ac 00 00 00       	jmpq   4028b2 <init_driver+0x1c2>
  402806:	48 c7 04 24 00 00 00 	movq   $0x0,(%rsp)
  40280d:	00
  40280e:	48 c7 44 24 08 00 00 	movq   $0x0,0x8(%rsp)
  402815:	00 00
  402817:	66 c7 04 24 02 00    	movw   $0x2,(%rsp)
  40281d:	48 8b 48 18          	mov    0x18(%rax),%rcx
  402821:	48 63 50 14          	movslq 0x14(%rax),%rdx
  402825:	48 8d 74 24 04       	lea    0x4(%rsp),%rsi
  40282a:	48 8b 39             	mov    (%rcx),%rdi
  40282d:	e8 8e e5 ff ff       	callq  400dc0 <bcopy@plt>
  402832:	66 c7 44 24 02 00 50 	movw   $0x5000,0x2(%rsp)
  402839:	ba 10 00 00 00       	mov    $0x10,%edx
  40283e:	48 89 e6             	mov    %rsp,%rsi
  402841:	89 df                	mov    %ebx,%edi
  402843:	e8 c8 e5 ff ff       	callq  400e10 <connect@plt>
  402848:	85 c0                	test   %eax,%eax
  40284a:	79 50                	jns    40289c <init_driver+0x1ac>
  40284c:	48 b8 45 72 72 6f 72 	movabs $0x55203a726f727245,%rax
  402853:	3a 20 55
  402856:	48 89 45 00          	mov    %rax,0x0(%rbp)
  40285a:	48 b8 6e 61 62 6c 65 	movabs $0x6f7420656c62616e,%rax
  402861:	20 74 6f
  402864:	48 89 45 08          	mov    %rax,0x8(%rbp)
  402868:	48 b8 20 63 6f 6e 6e 	movabs $0x7463656e6e6f6320,%rax
  40286f:	65 63 74
  402872:	48 89 45 10          	mov    %rax,0x10(%rbp)
  402876:	48 b8 20 74 6f 20 73 	movabs $0x76726573206f7420,%rax
  40287d:	65 72 76
  402880:	48 89 45 18          	mov    %rax,0x18(%rbp)
  402884:	66 c7 45 20 65 72    	movw   $0x7265,0x20(%rbp)
  40288a:	c6 45 22 00          	movb   $0x0,0x22(%rbp)
  40288e:	89 df                	mov    %ebx,%edi
  402890:	e8 6b e4 ff ff       	callq  400d00 <close@plt>
  402895:	b8 ff ff ff ff       	mov    $0xffffffff,%eax
  40289a:	eb 16                	jmp    4028b2 <init_driver+0x1c2>
  40289c:	89 df                	mov    %ebx,%edi
  40289e:	e8 5d e4 ff ff       	callq  400d00 <close@plt>
  4028a3:	66 c7 45 00 4f 4b    	movw   $0x4b4f,0x0(%rbp)
  4028a9:	c6 45 02 00          	movb   $0x0,0x2(%rbp)
  4028ad:	b8 00 00 00 00       	mov    $0x0,%eax
  4028b2:	48 83 c4 18          	add    $0x18,%rsp
  4028b6:	5b                   	pop    %rbx
  4028b7:	5d                   	pop    %rbp
  4028b8:	c3                   	retq

00000000004028b9 <driver_post>:
  4028b9:	53                   	push   %rbx
  4028ba:	48 83 ec 10          	sub    $0x10,%rsp
  4028be:	4c 89 cb             	mov    %r9,%rbx
  4028c1:	45 85 c0             	test   %r8d,%r8d
  4028c4:	74 22                	je     4028e8 <driver_post+0x2f>
  4028c6:	48 89 ce             	mov    %rcx,%rsi
  4028c9:	bf 1c 33 40 00       	mov    $0x40331c,%edi
  4028ce:	b8 00 00 00 00       	mov    $0x0,%eax
  4028d3:	e8 08 e4 ff ff       	callq  400ce0 <printf@plt>
  4028d8:	66 c7 03 4f 4b       	movw   $0x4b4f,(%rbx)
  4028dd:	c6 43 02 00          	movb   $0x0,0x2(%rbx)
  4028e1:	b8 00 00 00 00       	mov    $0x0,%eax
  4028e6:	eb 39                	jmp    402921 <driver_post+0x68>
  4028e8:	48 85 ff             	test   %rdi,%rdi
  4028eb:	74 26                	je     402913 <driver_post+0x5a>
  4028ed:	80 3f 00             	cmpb   $0x0,(%rdi)
  4028f0:	74 21                	je     402913 <driver_post+0x5a>
  4028f2:	4c 89 0c 24          	mov    %r9,(%rsp)
  4028f6:	49 89 c9             	mov    %rcx,%r9
  4028f9:	49 89 d0             	mov    %rdx,%r8
  4028fc:	48 89 f9             	mov    %rdi,%rcx
  4028ff:	48 89 f2             	mov    %rsi,%rdx
  402902:	be 50 00 00 00       	mov    $0x50,%esi
  402907:	bf 05 33 40 00       	mov    $0x403305,%edi
  40290c:	e8 66 f6 ff ff       	callq  401f77 <submitr>
  402911:	eb 0e                	jmp    402921 <driver_post+0x68>
  402913:	66 c7 03 4f 4b       	movw   $0x4b4f,(%rbx)
  402918:	c6 43 02 00          	movb   $0x0,0x2(%rbx)
  40291c:	b8 00 00 00 00       	mov    $0x0,%eax
  402921:	48 83 c4 10          	add    $0x10,%rsp
  402925:	5b                   	pop    %rbx
  402926:	c3                   	retq
  402927:	66 0f 1f 84 00 00 00 	nopw   0x0(%rax,%rax,1)
  40292e:	00 00

0000000000402930 <__libc_csu_init>:
  402930:	41 57                	push   %r15
  402932:	41 89 ff             	mov    %edi,%r15d
  402935:	41 56                	push   %r14
  402937:	49 89 f6             	mov    %rsi,%r14
  40293a:	41 55                	push   %r13
  40293c:	49 89 d5             	mov    %rdx,%r13
  40293f:	41 54                	push   %r12
  402941:	4c 8d 25 a8 14 20 00 	lea    0x2014a8(%rip),%r12        # 603df0 <__frame_dummy_init_array_entry>
  402948:	55                   	push   %rbp
  402949:	48 8d 2d a8 14 20 00 	lea    0x2014a8(%rip),%rbp        # 603df8 <__init_array_end>
  402950:	53                   	push   %rbx
  402951:	4c 29 e5             	sub    %r12,%rbp
  402954:	31 db                	xor    %ebx,%ebx
  402956:	48 c1 fd 03          	sar    $0x3,%rbp
  40295a:	48 83 ec 08          	sub    $0x8,%rsp
  40295e:	e8 4d e3 ff ff       	callq  400cb0 <_init>
  402963:	48 85 ed             	test   %rbp,%rbp
  402966:	74 1e                	je     402986 <__libc_csu_init+0x56>
  402968:	0f 1f 84 00 00 00 00 	nopl   0x0(%rax,%rax,1)
  40296f:	00
  402970:	4c 89 ea             	mov    %r13,%rdx
  402973:	4c 89 f6             	mov    %r14,%rsi
  402976:	44 89 ff             	mov    %r15d,%edi
  402979:	41 ff 14 dc          	callq  *(%r12,%rbx,8)
  40297d:	48 83 c3 01          	add    $0x1,%rbx
  402981:	48 39 eb             	cmp    %rbp,%rbx
  402984:	75 ea                	jne    402970 <__libc_csu_init+0x40>
  402986:	48 83 c4 08          	add    $0x8,%rsp
  40298a:	5b                   	pop    %rbx
  40298b:	5d                   	pop    %rbp
  40298c:	41 5c                	pop    %r12
  40298e:	41 5d                	pop    %r13
  402990:	41 5e                	pop    %r14
  402992:	41 5f                	pop    %r15
  402994:	c3                   	retq
  402995:	90                   	nop
  402996:	66 2e 0f 1f 84 00 00 	nopw   %cs:0x0(%rax,%rax,1)
  40299d:	00 00 00

00000000004029a0 <__libc_csu_fini>:
  4029a0:	f3 c3                	repz retq

Disassembly of section .fini:

00000000004029a4 <_fini>:
  4029a4:	48 83 ec 08          	sub    $0x8,%rsp
  4029a8:	48 83 c4 08          	add    $0x8,%rsp
  4029ac:	c3                   	retq
